((lp0
F0.050200803212851405
aF0.10040160642570281
aF0.15060240963855423
aF0.20080321285140562
aF0.25100401606425704
aF0.30120481927710846
aF0.3514056224899598
aF0.40160642570281124
aF0.45180722891566266
aF0.5020080321285141
aF0.5522088353413654
aF0.6024096385542169
aF0.6526104417670683
aF0.7028112449799196
aF0.7530120481927711
aF0.8032128514056225
aF0.8534136546184738
aF0.9036144578313253
aF0.9538152610441767
aF1.0040160642570282
aF1.0542168674698795
aF1.104417670682731
aF1.1546184738955823
aF1.2048192771084338
aF1.2550200803212852
aF1.3052208835341366
aF1.355421686746988
aF1.4056224899598393
aF1.4558232931726907
aF1.5060240963855422
aF1.5562248995983936
aF1.606425702811245
aF1.6566265060240963
aF1.7068273092369477
aF1.7570281124497993
aF1.8072289156626506
aF1.857429718875502
aF1.9076305220883534
aF1.9578313253012047
aF2.0080321285140563
aF2.0582329317269075
aF2.108433734939759
aF2.1586345381526106
aF2.208835341365462
aF2.2590361445783134
aF2.3092369477911645
aF2.359437751004016
aF2.4096385542168677
aF2.459839357429719
aF2.5100401606425704
aF2.5602409638554215
aF2.610441767068273
aF2.6606425702811247
aF2.710843373493976
aF2.7610441767068274
aF2.8112449799196786
aF2.86144578313253
aF2.9116465863453813
aF2.961847389558233
aF3.0120481927710845
aF3.0622489959839356
aF3.112449799196787
aF3.1626506024096384
aF3.21285140562249
aF3.2630522088353415
aF3.3132530120481927
aF3.3634538152610443
aF3.4136546184738954
aF3.463855421686747
aF3.5140562248995986
aF3.5642570281124497
aF3.6144578313253013
aF3.6646586345381524
aF3.714859437751004
aF3.7650602409638556
aF3.8152610441767068
aF3.8654618473895583
aF3.9156626506024095
aF3.965863453815261
aF4.016064257028113
aF4.066265060240964
aF4.116465863453815
aF4.166666666666667
aF4.216867469879518
aF4.267068273092369
aF4.317269076305221
aF4.367469879518072
aF4.417670682730924
aF4.467871485943775
aF4.518072289156627
aF4.568273092369478
aF4.618473895582329
aF4.668674698795181
aF4.718875502008032
aF4.769076305220883
aF4.819277108433735
aF4.8694779116465865
aF4.919678714859438
aF4.969879518072289
aF5.020080321285141
aF5.070281124497992
aF5.120481927710843
aF5.170682730923695
aF5.220883534136546
aF5.271084337349397
aF5.321285140562249
aF5.371485943775101
aF5.421686746987952
aF5.471887550200803
aF5.522088353413655
aF5.572289156626506
aF5.622489959839357
aF5.672690763052209
aF5.72289156626506
aF5.7730923694779115
aF5.823293172690763
aF5.873493975903615
aF5.923694779116466
aF5.973895582329317
aF6.024096385542169
aF6.07429718875502
aF6.124497991967871
aF6.174698795180723
aF6.224899598393574
aF6.275100401606426
aF6.325301204819277
aF6.375502008032129
aF6.42570281124498
aF6.475903614457831
aF6.526104417670683
aF6.576305220883534
aF6.626506024096385
aF6.676706827309237
aF6.7269076305220885
aF6.77710843373494
aF6.827309236947791
aF6.877510040160643
aF6.927710843373494
aF6.977911646586345
aF7.028112449799197
aF7.078313253012048
aF7.128514056224899
aF7.178714859437751
aF7.228915662650603
aF7.279116465863454
aF7.329317269076305
aF7.379518072289157
aF7.429718875502008
aF7.479919678714859
aF7.530120481927711
aF7.580321285140562
aF7.6305220883534135
aF7.680722891566265
aF7.730923694779117
aF7.781124497991968
aF7.831325301204819
aF7.881526104417671
aF7.931726907630522
aF7.981927710843373
aF8.032128514056225
aF8.082329317269076
aF8.132530120481928
aF8.182730923694779
aF8.23293172690763
aF8.283132530120483
aF8.333333333333334
aF8.383534136546185
aF8.433734939759036
aF8.483935742971887
aF8.534136546184738
aF8.58433734939759
aF8.634538152610443
aF8.684738955823294
aF8.734939759036145
aF8.785140562248996
aF8.835341365461847
aF8.885542168674698
aF8.93574297188755
aF8.985943775100402
aF9.036144578313253
aF9.086345381526105
aF9.136546184738956
aF9.186746987951807
aF9.236947791164658
aF9.28714859437751
aF9.337349397590362
aF9.387550200803213
aF9.437751004016064
aF9.487951807228916
aF9.538152610441767
aF9.588353413654618
aF9.63855421686747
aF9.688755020080322
aF9.738955823293173
aF9.789156626506024
aF9.839357429718875
aF9.889558232931726
aF9.939759036144578
aF9.98995983935743
aF10.040160642570282
aF10.090361445783133
aF10.140562248995984
aF10.190763052208835
aF10.240963855421686
aF10.291164658634537
aF10.34136546184739
aF10.391566265060241
aF10.441767068273093
aF10.491967871485944
aF10.542168674698795
aF10.592369477911646
aF10.642570281124499
aF10.69277108433735
aF10.742971887550201
aF10.793172690763052
aF10.843373493975903
aF10.893574297188755
aF10.943775100401606
aF10.993975903614459
aF11.04417670682731
aF11.094377510040161
aF11.144578313253012
aF11.194779116465863
aF11.244979919678714
aF11.295180722891565
aF11.345381526104418
aF11.39558232931727
aF11.44578313253012
aF11.495983935742972
aF11.546184738955823
aF11.596385542168674
aF11.646586345381525
aF11.696787148594378
aF11.74698795180723
aF11.79718875502008
aF11.847389558232932
aF11.897590361445783
aF11.947791164658634
aF11.997991967871487
aF12.048192771084338
aF12.098393574297189
aF12.14859437751004
aF12.198795180722891
aF12.248995983935743
aF12.299196787148594
aF12.349397590361447
aF12.399598393574298
aF12.449799196787149
aF12.5
aF12.550200803212851
aF12.600401606425702
aF12.650602409638553
aF12.700803212851406
aF12.751004016064257
aF12.801204819277109
aF12.85140562248996
aF12.901606425702811
aF12.951807228915662
aF13.002008032128513
aF13.052208835341366
aF13.102409638554217
aF13.152610441767068
aF13.20281124497992
aF13.25301204819277
aF13.303212851405622
aF13.353413654618475
aF13.403614457831326
aF13.453815261044177
aF13.504016064257028
aF13.55421686746988
aF13.60441767068273
aF13.654618473895582
aF13.704819277108435
aF13.755020080321286
aF13.805220883534137
aF13.855421686746988
aF13.905622489959839
aF13.95582329317269
aF14.006024096385541
aF14.056224899598394
aF14.106425702811245
aF14.156626506024097
aF14.206827309236948
aF14.257028112449799
aF14.30722891566265
aF14.357429718875501
aF14.407630522088354
aF14.457831325301205
aF14.508032128514056
aF14.558232931726907
aF14.608433734939759
aF14.65863453815261
aF14.708835341365463
aF14.759036144578314
aF14.809236947791165
aF14.859437751004016
aF14.909638554216867
aF14.959839357429718
aF15.01004016064257
aF15.060240963855422
aF15.110441767068274
aF15.160642570281125
aF15.210843373493976
aF15.261044176706827
aF15.311244979919678
aF15.36144578313253
aF15.411646586345382
aF15.461847389558233
aF15.512048192771084
aF15.562248995983936
aF15.612449799196787
aF15.662650602409638
aF15.71285140562249
aF15.763052208835342
aF15.813253012048193
aF15.863453815261044
aF15.913654618473895
aF15.963855421686747
aF16.014056224899598
aF16.06425702811245
aF16.1144578313253
aF16.164658634538153
aF16.214859437751002
aF16.265060240963855
aF16.315261044176708
aF16.365461847389557
aF16.41566265060241
aF16.46586345381526
aF16.516064257028113
aF16.566265060240966
aF16.616465863453815
aF16.666666666666668
aF16.716867469879517
aF16.76706827309237
aF16.81726907630522
aF16.867469879518072
aF16.917670682730925
aF16.967871485943775
aF17.018072289156628
aF17.068273092369477
aF17.11847389558233
aF17.16867469879518
aF17.218875502008032
aF17.269076305220885
aF17.319277108433734
aF17.369477911646587
aF17.419678714859437
aF17.46987951807229
aF17.52008032128514
aF17.570281124497992
aF17.620481927710845
aF17.670682730923694
aF17.720883534136547
aF17.771084337349397
aF17.82128514056225
aF17.8714859437751
aF17.92168674698795
aF17.971887550200805
aF18.022088353413654
aF18.072289156626507
aF18.122489959839356
aF18.17269076305221
aF18.22289156626506
aF18.27309236947791
aF18.323293172690764
aF18.373493975903614
aF18.423694779116467
aF18.473895582329316
aF18.52409638554217
aF18.57429718875502
aF18.62449799196787
aF18.674698795180724
aF18.724899598393574
aF18.775100401606426
aF18.825301204819276
aF18.87550200803213
aF18.92570281124498
aF18.97590361445783
aF19.026104417670684
aF19.076305220883533
aF19.126506024096386
aF19.176706827309236
aF19.22690763052209
aF19.27710843373494
aF19.32730923694779
aF19.377510040160644
aF19.427710843373493
aF19.477911646586346
aF19.528112449799195
aF19.57831325301205
aF19.6285140562249
aF19.67871485943775
aF19.728915662650603
aF19.779116465863453
aF19.829317269076306
aF19.879518072289155
aF19.929718875502008
aF19.97991967871486
aF20.03012048192771
aF20.080321285140563
aF20.130522088353413
aF20.180722891566266
aF20.230923694779115
aF20.281124497991968
aF20.33132530120482
aF20.38152610441767
aF20.431726907630523
aF20.481927710843372
aF20.532128514056225
aF20.582329317269075
aF20.632530120481928
aF20.68273092369478
aF20.73293172690763
aF20.783132530120483
aF20.833333333333332
aF20.883534136546185
aF20.933734939759034
aF20.983935742971887
aF21.03413654618474
aF21.08433734939759
aF21.134538152610443
aF21.184738955823292
aF21.234939759036145
aF21.285140562248998
aF21.335341365461847
aF21.3855421686747
aF21.43574297188755
aF21.485943775100402
aF21.53614457831325
aF21.586345381526105
aF21.636546184738958
aF21.686746987951807
aF21.73694779116466
aF21.78714859437751
aF21.837349397590362
aF21.88755020080321
aF21.937751004016064
aF21.987951807228917
aF22.038152610441767
aF22.08835341365462
aF22.13855421686747
aF22.188755020080322
aF22.23895582329317
aF22.289156626506024
aF22.339357429718877
aF22.389558232931726
aF22.43975903614458
aF22.48995983935743
aF22.54016064257028
aF22.59036144578313
aF22.640562248995984
aF22.690763052208837
aF22.740963855421686
aF22.79116465863454
aF22.84136546184739
aF22.89156626506024
aF22.94176706827309
aF22.991967871485944
aF23.042168674698797
aF23.092369477911646
aF23.1425702811245
aF23.19277108433735
aF23.2429718875502
aF23.29317269076305
aF23.343373493975903
aF23.393574297188756
aF23.443775100401606
aF23.49397590361446
aF23.544176706827308
aF23.59437751004016
aF23.64457831325301
aF23.694779116465863
aF23.744979919678716
aF23.795180722891565
aF23.84538152610442
aF23.895582329317268
aF23.94578313253012
aF23.995983935742974
aF24.046184738955823
aF24.096385542168676
aF24.146586345381525
aF24.196787148594378
aF24.246987951807228
aF24.29718875502008
aF24.347389558232933
aF24.397590361445783
aF24.447791164658636
aF24.497991967871485
aF24.548192771084338
aF24.598393574297187
aF24.64859437751004
aF24.698795180722893
aF24.748995983935743
aF24.799196787148595
aF24.849397590361445
aF24.899598393574298
aF24.949799196787147
aF25.0
aF25.050200803212853
aF25.100401606425702
aF25.150602409638555
aF25.200803212851405
aF25.251004016064257
aF25.301204819277107
aF25.35140562248996
aF25.401606425702813
aF25.451807228915662
aF25.502008032128515
aF25.552208835341364
aF25.602409638554217
aF25.652610441767067
aF25.70281124497992
aF25.753012048192772
aF25.803212851405622
aF25.853413654618475
aF25.903614457831324
aF25.953815261044177
aF26.004016064257026
aF26.05421686746988
aF26.104417670682732
aF26.15461847389558
aF26.204819277108435
aF26.255020080321284
aF26.305220883534137
aF26.35542168674699
aF26.40562248995984
aF26.455823293172692
aF26.50602409638554
aF26.556224899598394
aF26.606425702811244
aF26.656626506024097
aF26.70682730923695
aF26.7570281124498
aF26.80722891566265
aF26.8574297188755
aF26.907630522088354
aF26.957831325301203
aF27.008032128514056
aF27.05823293172691
aF27.10843373493976
aF27.15863453815261
aF27.20883534136546
aF27.259036144578314
aF27.309236947791163
aF27.359437751004016
aF27.40963855421687
aF27.45983935742972
aF27.51004016064257
aF27.56024096385542
aF27.610441767068274
aF27.660642570281123
aF27.710843373493976
aF27.76104417670683
aF27.811244979919678
aF27.86144578313253
aF27.91164658634538
aF27.961847389558233
aF28.012048192771083
aF28.062248995983936
aF28.11244979919679
aF28.162650602409638
aF28.21285140562249
aF28.26305220883534
aF28.313253012048193
aF28.363453815261042
aF28.413654618473895
aF28.46385542168675
aF28.514056224899598
aF28.56425702811245
aF28.6144578313253
aF28.664658634538153
aF28.714859437751002
aF28.765060240963855
aF28.815261044176708
aF28.865461847389557
aF28.91566265060241
aF28.96586345381526
aF29.016064257028113
aF29.066265060240966
aF29.116465863453815
aF29.166666666666668
aF29.216867469879517
aF29.26706827309237
aF29.31726907630522
aF29.367469879518072
aF29.417670682730925
aF29.467871485943775
aF29.518072289156628
aF29.568273092369477
aF29.61847389558233
aF29.66867469879518
aF29.718875502008032
aF29.769076305220885
aF29.819277108433734
aF29.869477911646587
aF29.919678714859437
aF29.96987951807229
aF30.02008032128514
aF30.070281124497992
aF30.120481927710845
aF30.170682730923694
aF30.220883534136547
aF30.271084337349397
aF30.32128514056225
aF30.3714859437751
aF30.42168674698795
aF30.471887550200805
aF30.522088353413654
aF30.572289156626507
aF30.622489959839356
aF30.67269076305221
aF30.72289156626506
aF30.77309236947791
aF30.823293172690764
aF30.873493975903614
aF30.923694779116467
aF30.973895582329316
aF31.02409638554217
aF31.07429718875502
aF31.12449799196787
aF31.174698795180724
aF31.224899598393574
aF31.275100401606426
aF31.325301204819276
aF31.37550200803213
aF31.42570281124498
aF31.47590361445783
aF31.526104417670684
aF31.576305220883533
aF31.626506024096386
aF31.676706827309236
aF31.72690763052209
aF31.77710843373494
aF31.82730923694779
aF31.877510040160644
aF31.927710843373493
aF31.977911646586346
aF32.028112449799195
aF32.07831325301205
aF32.1285140562249
aF32.178714859437754
aF32.2289156626506
aF32.27911646586345
aF32.329317269076306
aF32.37951807228916
aF32.429718875502004
aF32.47991967871486
aF32.53012048192771
aF32.58032128514056
aF32.630522088353416
aF32.68072289156626
aF32.730923694779115
aF32.78112449799197
aF32.83132530120482
aF32.881526104417674
aF32.93172690763052
aF32.98192771084337
aF33.032128514056225
aF33.08232931726908
aF33.13253012048193
aF33.18273092369478
aF33.23293172690763
aF33.28313253012048
aF33.333333333333336
aF33.38353413654618
aF33.433734939759034
aF33.48393574297189
aF33.53413654618474
aF33.58433734939759
aF33.63453815261044
aF33.68473895582329
aF33.734939759036145
aF33.785140562249
aF33.83534136546185
aF33.8855421686747
aF33.93574297188755
aF33.9859437751004
aF34.036144578313255
aF34.0863453815261
aF34.136546184738954
aF34.18674698795181
aF34.23694779116466
aF34.28714859437751
aF34.33734939759036
aF34.38755020080321
aF34.437751004016064
aF34.48795180722892
aF34.53815261044177
aF34.588353413654616
aF34.63855421686747
aF34.68875502008032
aF34.738955823293175
aF34.78915662650602
aF34.83935742971887
aF34.889558232931726
aF34.93975903614458
aF34.98995983935743
aF35.04016064257028
aF35.09036144578313
aF35.140562248995984
aF35.19076305220884
aF35.24096385542169
aF35.291164658634536
aF35.34136546184739
aF35.39156626506024
aF35.441767068273094
aF35.49196787148595
aF35.54216867469879
aF35.592369477911646
aF35.6425702811245
aF35.69277108433735
aF35.7429718875502
aF35.79317269076305
aF35.8433734939759
aF35.893574297188756
aF35.94377510040161
aF35.993975903614455
aF36.04417670682731
aF36.09437751004016
aF36.144578313253014
aF36.19477911646587
aF36.24497991967871
aF36.295180722891565
aF36.34538152610442
aF36.39558232931727
aF36.44578313253012
aF36.49598393574297
aF36.54618473895582
aF36.596385542168676
aF36.64658634538153
aF36.696787148594375
aF36.74698795180723
aF36.79718875502008
aF36.84738955823293
aF36.897590361445786
aF36.94779116465863
aF36.997991967871485
aF37.04819277108434
aF37.09839357429719
aF37.14859437751004
aF37.19879518072289
aF37.24899598393574
aF37.299196787148595
aF37.34939759036145
aF37.399598393574294
aF37.44979919678715
aF37.5
aF37.55020080321285
aF37.600401606425706
aF37.65060240963855
aF37.700803212851405
aF37.75100401606426
aF37.80120481927711
aF37.85140562248996
aF37.90160642570281
aF37.95180722891566
aF38.002008032128515
aF38.05220883534137
aF38.102409638554214
aF38.15261044176707
aF38.20281124497992
aF38.25301204819277
aF38.303212851405625
aF38.35341365461847
aF38.403614457831324
aF38.45381526104418
aF38.50401606425703
aF38.55421686746988
aF38.60441767068273
aF38.65461847389558
aF38.704819277108435
aF38.75502008032129
aF38.80522088353413
aF38.855421686746986
aF38.90562248995984
aF38.95582329317269
aF39.006024096385545
aF39.05622489959839
aF39.106425702811244
aF39.1566265060241
aF39.20682730923695
aF39.2570281124498
aF39.30722891566265
aF39.3574297188755
aF39.407630522088354
aF39.45783132530121
aF39.50803212851405
aF39.558232931726906
aF39.60843373493976
aF39.65863453815261
aF39.708835341365464
aF39.75903614457831
aF39.80923694779116
aF39.859437751004016
aF39.90963855421687
aF39.95983935742972
aF40.01004016064257
aF40.06024096385542
aF40.110441767068274
aF40.16064257028113
aF40.21084337349398
aF40.261044176706825
aF40.31124497991968
aF40.36144578313253
aF40.411646586345384
aF40.46184738955823
aF40.51204819277108
aF40.562248995983936
aF40.61244979919679
aF40.66265060240964
aF40.71285140562249
aF40.76305220883534
aF40.81325301204819
aF40.863453815261046
aF40.9136546184739
aF40.963855421686745
aF41.0140562248996
aF41.06425702811245
aF41.1144578313253
aF41.16465863453815
aF41.214859437751
aF41.265060240963855
aF41.31526104417671
aF41.36546184738956
aF41.41566265060241
aF41.46586345381526
aF41.51606425702811
aF41.566265060240966
aF41.61646586345382
aF41.666666666666664
aF41.71686746987952
aF41.76706827309237
aF41.81726907630522
aF41.86746987951807
aF41.91767068273092
aF41.967871485943775
aF42.01807228915663
aF42.06827309236948
aF42.118473895582326
aF42.16867469879518
aF42.21887550200803
aF42.269076305220885
aF42.31927710843374
aF42.369477911646584
aF42.41967871485944
aF42.46987951807229
aF42.52008032128514
aF42.570281124497996
aF42.62048192771084
aF42.670682730923694
aF42.72088353413655
aF42.7710843373494
aF42.821285140562246
aF42.8714859437751
aF42.92168674698795
aF42.971887550200805
aF43.02208835341366
aF43.0722891566265
aF43.122489959839356
aF43.17269076305221
aF43.22289156626506
aF43.273092369477915
aF43.32329317269076
aF43.373493975903614
aF43.42369477911647
aF43.47389558232932
aF43.524096385542165
aF43.57429718875502
aF43.62449799196787
aF43.674698795180724
aF43.72489959839358
aF43.77510040160642
aF43.825301204819276
aF43.87550200803213
aF43.92570281124498
aF43.975903614457835
aF44.02610441767068
aF44.07630522088353
aF44.126506024096386
aF44.17670682730924
aF44.226907630522085
aF44.27710843373494
aF44.32730923694779
aF44.377510040160644
aF44.4277108433735
aF44.47791164658634
aF44.528112449799195
aF44.57831325301205
aF44.6285140562249
aF44.678714859437754
aF44.7289156626506
aF44.77911646586345
aF44.829317269076306
aF44.87951807228916
aF44.929718875502004
aF44.97991967871486
aF45.03012048192771
aF45.08032128514056
aF45.130522088353416
aF45.18072289156626
aF45.230923694779115
aF45.28112449799197
aF45.33132530120482
aF45.381526104417674
aF45.43172690763052
aF45.48192771084337
aF45.532128514056225
aF45.58232931726908
aF45.63253012048193
aF45.68273092369478
aF45.73293172690763
aF45.78313253012048
aF45.833333333333336
aF45.88353413654618
aF45.933734939759034
aF45.98393574297189
aF46.03413654618474
aF46.08433734939759
aF46.13453815261044
aF46.18473895582329
aF46.234939759036145
aF46.285140562249
aF46.33534136546185
aF46.3855421686747
aF46.43574297188755
aF46.4859437751004
aF46.536144578313255
aF46.5863453815261
aF46.636546184738954
aF46.68674698795181
aF46.73694779116466
aF46.78714859437751
aF46.83734939759036
aF46.88755020080321
aF46.937751004016064
aF46.98795180722892
aF47.03815261044177
aF47.088353413654616
aF47.13855421686747
aF47.18875502008032
aF47.238955823293175
aF47.28915662650602
aF47.33935742971887
aF47.389558232931726
aF47.43975903614458
aF47.48995983935743
aF47.54016064257028
aF47.59036144578313
aF47.640562248995984
aF47.69076305220884
aF47.74096385542169
aF47.791164658634536
aF47.84136546184739
aF47.89156626506024
aF47.941767068273094
aF47.99196787148595
aF48.04216867469879
aF48.092369477911646
aF48.1425702811245
aF48.19277108433735
aF48.2429718875502
aF48.29317269076305
aF48.3433734939759
aF48.393574297188756
aF48.44377510040161
aF48.493975903614455
aF48.54417670682731
aF48.59437751004016
aF48.644578313253014
aF48.69477911646587
aF48.74497991967871
aF48.795180722891565
aF48.84538152610442
aF48.89558232931727
aF48.94578313253012
aF48.99598393574297
aF49.04618473895582
aF49.096385542168676
aF49.14658634538153
aF49.196787148594375
aF49.24698795180723
aF49.29718875502008
aF49.34738955823293
aF49.397590361445786
aF49.44779116465863
aF49.497991967871485
aF49.54819277108434
aF49.59839357429719
aF49.64859437751004
aF49.69879518072289
aF49.74899598393574
aF49.799196787148595
aF49.84939759036145
aF49.899598393574294
aF49.94979919678715
aF50.0
aF50.05020080321285
aF50.100401606425706
aF50.15060240963855
aF50.200803212851405
aF50.25100401606426
aF50.30120481927711
aF50.35140562248996
aF50.40160642570281
aF50.45180722891566
aF50.502008032128515
aF50.55220883534137
aF50.602409638554214
aF50.65261044176707
aF50.70281124497992
aF50.75301204819277
aF50.803212851405625
aF50.85341365461847
aF50.903614457831324
aF50.95381526104418
aF51.00401606425703
aF51.05421686746988
aF51.10441767068273
aF51.15461847389558
aF51.204819277108435
aF51.25502008032129
aF51.30522088353413
aF51.355421686746986
aF51.40562248995984
aF51.45582329317269
aF51.506024096385545
aF51.55622489959839
aF51.606425702811244
aF51.6566265060241
aF51.70682730923695
aF51.7570281124498
aF51.80722891566265
aF51.8574297188755
aF51.907630522088354
aF51.95783132530121
aF52.00803212851405
aF52.058232931726906
aF52.10843373493976
aF52.15863453815261
aF52.208835341365464
aF52.25903614457831
aF52.30923694779116
aF52.359437751004016
aF52.40963855421687
aF52.45983935742972
aF52.51004016064257
aF52.56024096385542
aF52.610441767068274
aF52.66064257028113
aF52.71084337349398
aF52.761044176706825
aF52.81124497991968
aF52.86144578313253
aF52.911646586345384
aF52.96184738955823
aF53.01204819277108
aF53.062248995983936
aF53.11244979919679
aF53.16265060240964
aF53.21285140562249
aF53.26305220883534
aF53.31325301204819
aF53.363453815261046
aF53.4136546184739
aF53.463855421686745
aF53.5140562248996
aF53.56425702811245
aF53.6144578313253
aF53.66465863453815
aF53.714859437751
aF53.765060240963855
aF53.81526104417671
aF53.86546184738956
aF53.91566265060241
aF53.96586345381526
aF54.01606425702811
aF54.066265060240966
aF54.11646586345382
aF54.166666666666664
aF54.21686746987952
aF54.26706827309237
aF54.31726907630522
aF54.36746987951807
aF54.41767068273092
aF54.467871485943775
aF54.51807228915663
aF54.56827309236948
aF54.618473895582326
aF54.66867469879518
aF54.71887550200803
aF54.769076305220885
aF54.81927710843374
aF54.869477911646584
aF54.91967871485944
aF54.96987951807229
aF55.02008032128514
aF55.070281124497996
aF55.12048192771084
aF55.170682730923694
aF55.22088353413655
aF55.2710843373494
aF55.321285140562246
aF55.3714859437751
aF55.42168674698795
aF55.471887550200805
aF55.52208835341366
aF55.5722891566265
aF55.622489959839356
aF55.67269076305221
aF55.72289156626506
aF55.773092369477915
aF55.82329317269076
aF55.873493975903614
aF55.92369477911647
aF55.97389558232932
aF56.024096385542165
aF56.07429718875502
aF56.12449799196787
aF56.174698795180724
aF56.22489959839358
aF56.27510040160642
aF56.325301204819276
aF56.37550200803213
aF56.42570281124498
aF56.475903614457835
aF56.52610441767068
aF56.57630522088353
aF56.626506024096386
aF56.67670682730924
aF56.726907630522085
aF56.77710843373494
aF56.82730923694779
aF56.877510040160644
aF56.9277108433735
aF56.97791164658634
aF57.028112449799195
aF57.07831325301205
aF57.1285140562249
aF57.178714859437754
aF57.2289156626506
aF57.27911646586345
aF57.329317269076306
aF57.37951807228916
aF57.429718875502004
aF57.47991967871486
aF57.53012048192771
aF57.58032128514056
aF57.630522088353416
aF57.68072289156626
aF57.730923694779115
aF57.78112449799197
aF57.83132530120482
aF57.881526104417674
aF57.93172690763052
aF57.98192771084337
aF58.032128514056225
aF58.08232931726908
aF58.13253012048193
aF58.18273092369478
aF58.23293172690763
aF58.28313253012048
aF58.333333333333336
aF58.38353413654618
aF58.433734939759034
aF58.48393574297189
aF58.53413654618474
aF58.58433734939759
aF58.63453815261044
aF58.68473895582329
aF58.734939759036145
aF58.785140562249
aF58.83534136546185
aF58.8855421686747
aF58.93574297188755
aF58.9859437751004
aF59.036144578313255
aF59.0863453815261
aF59.136546184738954
aF59.18674698795181
aF59.23694779116466
aF59.28714859437751
aF59.33734939759036
aF59.38755020080321
aF59.437751004016064
aF59.48795180722892
aF59.53815261044177
aF59.588353413654616
aF59.63855421686747
aF59.68875502008032
aF59.738955823293175
aF59.78915662650602
aF59.83935742971887
aF59.889558232931726
aF59.93975903614458
aF59.98995983935743
aF60.04016064257028
aF60.09036144578313
aF60.140562248995984
aF60.19076305220884
aF60.24096385542169
aF60.291164658634536
aF60.34136546184739
aF60.39156626506024
aF60.441767068273094
aF60.49196787148595
aF60.54216867469879
aF60.592369477911646
aF60.6425702811245
aF60.69277108433735
aF60.7429718875502
aF60.79317269076305
aF60.8433734939759
aF60.893574297188756
aF60.94377510040161
aF60.993975903614455
aF61.04417670682731
aF61.09437751004016
aF61.144578313253014
aF61.19477911646587
aF61.24497991967871
aF61.295180722891565
aF61.34538152610442
aF61.39558232931727
aF61.44578313253012
aF61.49598393574297
aF61.54618473895582
aF61.596385542168676
aF61.64658634538153
aF61.696787148594375
aF61.74698795180723
aF61.79718875502008
aF61.84738955823293
aF61.897590361445786
aF61.94779116465863
aF61.997991967871485
aF62.04819277108434
aF62.09839357429719
aF62.14859437751004
aF62.19879518072289
aF62.24899598393574
aF62.299196787148595
aF62.34939759036145
aF62.399598393574294
aF62.44979919678715
aF62.5
aF62.55020080321285
aF62.600401606425706
aF62.65060240963855
aF62.700803212851405
aF62.75100401606426
aF62.80120481927711
aF62.85140562248996
aF62.90160642570281
aF62.95180722891566
aF63.002008032128515
aF63.05220883534137
aF63.102409638554214
aF63.15261044176707
aF63.20281124497992
aF63.25301204819277
aF63.303212851405625
aF63.35341365461847
aF63.403614457831324
aF63.45381526104418
aF63.50401606425703
aF63.55421686746988
aF63.60441767068273
aF63.65461847389558
aF63.704819277108435
aF63.75502008032129
aF63.80522088353413
aF63.855421686746986
aF63.90562248995984
aF63.95582329317269
aF64.00602409638554
aF64.05622489959839
aF64.10642570281125
aF64.1566265060241
aF64.20682730923694
aF64.2570281124498
aF64.30722891566265
aF64.35742971887551
aF64.40763052208835
aF64.4578313253012
aF64.50803212851406
aF64.5582329317269
aF64.60843373493977
aF64.65863453815261
aF64.70883534136546
aF64.75903614457832
aF64.80923694779116
aF64.85943775100401
aF64.90963855421687
aF64.95983935742971
aF65.01004016064257
aF65.06024096385542
aF65.11044176706827
aF65.16064257028113
aF65.21084337349397
aF65.26104417670683
aF65.31124497991968
aF65.36144578313252
aF65.41164658634538
aF65.46184738955823
aF65.51204819277109
aF65.56224899598394
aF65.61244979919678
aF65.66265060240964
aF65.71285140562249
aF65.76305220883535
aF65.8132530120482
aF65.86345381526104
aF65.9136546184739
aF65.96385542168674
aF66.0140562248996
aF66.06425702811245
aF66.1144578313253
aF66.16465863453816
aF66.214859437751
aF66.26506024096386
aF66.31526104417671
aF66.36546184738955
aF66.41566265060241
aF66.46586345381526
aF66.5160642570281
aF66.56626506024097
aF66.61646586345381
aF66.66666666666667
aF66.71686746987952
aF66.76706827309236
aF66.81726907630522
aF66.86746987951807
aF66.91767068273093
aF66.96787148594377
aF67.01807228915662
aF67.06827309236948
aF67.11847389558233
aF67.16867469879519
aF67.21887550200803
aF67.26907630522088
aF67.31927710843374
aF67.36947791164658
aF67.41967871485944
aF67.46987951807229
aF67.52008032128514
aF67.570281124498
aF67.62048192771084
aF67.6706827309237
aF67.72088353413655
aF67.7710843373494
aF67.82128514056225
aF67.8714859437751
aF67.92168674698796
aF67.9718875502008
aF68.02208835341365
aF68.07228915662651
aF68.12248995983936
aF68.1726907630522
aF68.22289156626506
aF68.27309236947791
aF68.32329317269077
aF68.37349397590361
aF68.42369477911646
aF68.47389558232932
aF68.52409638554217
aF68.57429718875503
aF68.62449799196787
aF68.67469879518072
aF68.72489959839358
aF68.77510040160642
aF68.82530120481928
aF68.87550200803213
aF68.92570281124497
aF68.97590361445783
aF69.02610441767068
aF69.07630522088354
aF69.12650602409639
aF69.17670682730923
aF69.22690763052209
aF69.27710843373494
aF69.3273092369478
aF69.37751004016064
aF69.42771084337349
aF69.47791164658635
aF69.5281124497992
aF69.57831325301204
aF69.6285140562249
aF69.67871485943775
aF69.7289156626506
aF69.77911646586345
aF69.8293172690763
aF69.87951807228916
aF69.929718875502
aF69.97991967871486
aF70.03012048192771
aF70.08032128514056
aF70.13052208835342
aF70.18072289156626
aF70.23092369477912
aF70.28112449799197
aF70.33132530120481
aF70.38152610441767
aF70.43172690763052
aF70.48192771084338
aF70.53212851405623
aF70.58232931726907
aF70.63253012048193
aF70.68273092369478
aF70.73293172690764
aF70.78313253012048
aF70.83333333333333
aF70.88353413654619
aF70.93373493975903
aF70.9839357429719
aF71.03413654618474
aF71.08433734939759
aF71.13453815261045
aF71.18473895582329
aF71.23493975903614
aF71.285140562249
aF71.33534136546184
aF71.3855421686747
aF71.43574297188755
aF71.4859437751004
aF71.53614457831326
aF71.5863453815261
aF71.63654618473896
aF71.6867469879518
aF71.73694779116465
aF71.78714859437751
aF71.83734939759036
aF71.88755020080322
aF71.93775100401606
aF71.98795180722891
aF72.03815261044177
aF72.08835341365462
aF72.13855421686748
aF72.18875502008032
aF72.23895582329317
aF72.28915662650603
aF72.33935742971887
aF72.38955823293173
aF72.43975903614458
aF72.48995983935743
aF72.54016064257029
aF72.59036144578313
aF72.64056224899599
aF72.69076305220884
aF72.74096385542168
aF72.79116465863454
aF72.84136546184739
aF72.89156626506023
aF72.9417670682731
aF72.99196787148594
aF73.0421686746988
aF73.09236947791165
aF73.14257028112449
aF73.19277108433735
aF73.2429718875502
aF73.29317269076306
aF73.3433734939759
aF73.39357429718875
aF73.44377510040161
aF73.49397590361446
aF73.54417670682732
aF73.59437751004016
aF73.644578313253
aF73.69477911646587
aF73.74497991967871
aF73.79518072289157
aF73.84538152610442
aF73.89558232931726
aF73.94578313253012
aF73.99598393574297
aF74.04618473895583
aF74.09638554216868
aF74.14658634538152
aF74.19678714859438
aF74.24698795180723
aF74.29718875502007
aF74.34738955823293
aF74.39759036144578
aF74.44779116465864
aF74.49799196787149
aF74.54819277108433
aF74.59839357429719
aF74.64859437751004
aF74.6987951807229
aF74.74899598393574
aF74.79919678714859
aF74.84939759036145
aF74.8995983935743
aF74.94979919678715
aF75.0
aF75.05020080321285
aF75.1004016064257
aF75.15060240963855
aF75.20080321285141
aF75.25100401606426
aF75.3012048192771
aF75.35140562248996
aF75.40160642570281
aF75.45180722891567
aF75.50200803212851
aF75.55220883534136
aF75.60240963855422
aF75.65261044176707
aF75.70281124497993
aF75.75301204819277
aF75.80321285140562
aF75.85341365461848
aF75.90361445783132
aF75.95381526104417
aF76.00401606425703
aF76.05421686746988
aF76.10441767068274
aF76.15461847389558
aF76.20481927710843
aF76.25502008032129
aF76.30522088353413
aF76.355421686747
aF76.40562248995984
aF76.45582329317268
aF76.50602409638554
aF76.55622489959839
aF76.60642570281125
aF76.6566265060241
aF76.70682730923694
aF76.7570281124498
aF76.80722891566265
aF76.85742971887551
aF76.90763052208835
aF76.9578313253012
aF77.00803212851406
aF77.0582329317269
aF77.10843373493977
aF77.15863453815261
aF77.20883534136546
aF77.25903614457832
aF77.30923694779116
aF77.35943775100401
aF77.40963855421687
aF77.45983935742971
aF77.51004016064257
aF77.56024096385542
aF77.61044176706827
aF77.66064257028113
aF77.71084337349397
aF77.76104417670683
aF77.81124497991968
aF77.86144578313252
aF77.91164658634538
aF77.96184738955823
aF78.01204819277109
aF78.06224899598394
aF78.11244979919678
aF78.16265060240964
aF78.21285140562249
aF78.26305220883535
aF78.3132530120482
aF78.36345381526104
aF78.4136546184739
aF78.46385542168674
aF78.5140562248996
aF78.56425702811245
aF78.6144578313253
aF78.66465863453816
aF78.714859437751
aF78.76506024096386
aF78.81526104417671
aF78.86546184738955
aF78.91566265060241
aF78.96586345381526
aF79.0160642570281
aF79.06626506024097
aF79.11646586345381
aF79.16666666666667
aF79.21686746987952
aF79.26706827309236
aF79.31726907630522
aF79.36746987951807
aF79.41767068273093
aF79.46787148594377
aF79.51807228915662
aF79.56827309236948
aF79.61847389558233
aF79.66867469879519
aF79.71887550200803
aF79.76907630522088
aF79.81927710843374
aF79.86947791164658
aF79.91967871485944
aF79.96987951807229
aF80.02008032128514
aF80.070281124498
aF80.12048192771084
aF80.1706827309237
aF80.22088353413655
aF80.2710843373494
aF80.32128514056225
aF80.3714859437751
aF80.42168674698796
aF80.4718875502008
aF80.52208835341365
aF80.57228915662651
aF80.62248995983936
aF80.6726907630522
aF80.72289156626506
aF80.77309236947791
aF80.82329317269077
aF80.87349397590361
aF80.92369477911646
aF80.97389558232932
aF81.02409638554217
aF81.07429718875503
aF81.12449799196787
aF81.17469879518072
aF81.22489959839358
aF81.27510040160642
aF81.32530120481928
aF81.37550200803213
aF81.42570281124497
aF81.47590361445783
aF81.52610441767068
aF81.57630522088354
aF81.62650602409639
aF81.67670682730923
aF81.72690763052209
aF81.77710843373494
aF81.8273092369478
aF81.87751004016064
aF81.92771084337349
aF81.97791164658635
aF82.0281124497992
aF82.07831325301204
aF82.1285140562249
aF82.17871485943775
aF82.2289156626506
aF82.27911646586345
aF82.3293172690763
aF82.37951807228916
aF82.429718875502
aF82.47991967871486
aF82.53012048192771
aF82.58032128514056
aF82.63052208835342
aF82.68072289156626
aF82.73092369477912
aF82.78112449799197
aF82.83132530120481
aF82.88152610441767
aF82.93172690763052
aF82.98192771084338
aF83.03212851405623
aF83.08232931726907
aF83.13253012048193
aF83.18273092369478
aF83.23293172690764
aF83.28313253012048
aF83.33333333333333
aF83.38353413654619
aF83.43373493975903
aF83.4839357429719
aF83.53413654618474
aF83.58433734939759
aF83.63453815261045
aF83.68473895582329
aF83.73493975903614
aF83.785140562249
aF83.83534136546184
aF83.8855421686747
aF83.93574297188755
aF83.9859437751004
aF84.03614457831326
aF84.0863453815261
aF84.13654618473896
aF84.1867469879518
aF84.23694779116465
aF84.28714859437751
aF84.33734939759036
aF84.38755020080322
aF84.43775100401606
aF84.48795180722891
aF84.53815261044177
aF84.58835341365462
aF84.63855421686748
aF84.68875502008032
aF84.73895582329317
aF84.78915662650603
aF84.83935742971887
aF84.88955823293173
aF84.93975903614458
aF84.98995983935743
aF85.04016064257029
aF85.09036144578313
aF85.14056224899599
aF85.19076305220884
aF85.24096385542168
aF85.29116465863454
aF85.34136546184739
aF85.39156626506023
aF85.4417670682731
aF85.49196787148594
aF85.5421686746988
aF85.59236947791165
aF85.64257028112449
aF85.69277108433735
aF85.7429718875502
aF85.79317269076306
aF85.8433734939759
aF85.89357429718875
aF85.94377510040161
aF85.99397590361446
aF86.04417670682732
aF86.09437751004016
aF86.144578313253
aF86.19477911646587
aF86.24497991967871
aF86.29518072289157
aF86.34538152610442
aF86.39558232931726
aF86.44578313253012
aF86.49598393574297
aF86.54618473895583
aF86.59638554216868
aF86.64658634538152
aF86.69678714859438
aF86.74698795180723
aF86.79718875502007
aF86.84738955823293
aF86.89759036144578
aF86.94779116465864
aF86.99799196787149
aF87.04819277108433
aF87.09839357429719
aF87.14859437751004
aF87.1987951807229
aF87.24899598393574
aF87.29919678714859
aF87.34939759036145
aF87.3995983935743
aF87.44979919678715
aF87.5
aF87.55020080321285
aF87.6004016064257
aF87.65060240963855
aF87.70080321285141
aF87.75100401606426
aF87.8012048192771
aF87.85140562248996
aF87.90160642570281
aF87.95180722891567
aF88.00200803212851
aF88.05220883534136
aF88.10240963855422
aF88.15261044176707
aF88.20281124497993
aF88.25301204819277
aF88.30321285140562
aF88.35341365461848
aF88.40361445783132
aF88.45381526104417
aF88.50401606425703
aF88.55421686746988
aF88.60441767068274
aF88.65461847389558
aF88.70481927710843
aF88.75502008032129
aF88.80522088353413
aF88.855421686747
aF88.90562248995984
aF88.95582329317268
aF89.00602409638554
aF89.05622489959839
aF89.10642570281125
aF89.1566265060241
aF89.20682730923694
aF89.2570281124498
aF89.30722891566265
aF89.35742971887551
aF89.40763052208835
aF89.4578313253012
aF89.50803212851406
aF89.5582329317269
aF89.60843373493977
aF89.65863453815261
aF89.70883534136546
aF89.75903614457832
aF89.80923694779116
aF89.85943775100401
aF89.90963855421687
aF89.95983935742971
aF90.01004016064257
aF90.06024096385542
aF90.11044176706827
aF90.16064257028113
aF90.21084337349397
aF90.26104417670683
aF90.31124497991968
aF90.36144578313252
aF90.41164658634538
aF90.46184738955823
aF90.51204819277109
aF90.56224899598394
aF90.61244979919678
aF90.66265060240964
aF90.71285140562249
aF90.76305220883535
aF90.8132530120482
aF90.86345381526104
aF90.9136546184739
aF90.96385542168674
aF91.0140562248996
aF91.06425702811245
aF91.1144578313253
aF91.16465863453816
aF91.214859437751
aF91.26506024096386
aF91.31526104417671
aF91.36546184738955
aF91.41566265060241
aF91.46586345381526
aF91.5160642570281
aF91.56626506024097
aF91.61646586345381
aF91.66666666666667
aF91.71686746987952
aF91.76706827309236
aF91.81726907630522
aF91.86746987951807
aF91.91767068273093
aF91.96787148594377
aF92.01807228915662
aF92.06827309236948
aF92.11847389558233
aF92.16867469879519
aF92.21887550200803
aF92.26907630522088
aF92.31927710843374
aF92.36947791164658
aF92.41967871485944
aF92.46987951807229
aF92.52008032128514
aF92.570281124498
aF92.62048192771084
aF92.6706827309237
aF92.72088353413655
aF92.7710843373494
aF92.82128514056225
aF92.8714859437751
aF92.92168674698796
aF92.9718875502008
aF93.02208835341365
aF93.07228915662651
aF93.12248995983936
aF93.1726907630522
aF93.22289156626506
aF93.27309236947791
aF93.32329317269077
aF93.37349397590361
aF93.42369477911646
aF93.47389558232932
aF93.52409638554217
aF93.57429718875503
aF93.62449799196787
aF93.67469879518072
aF93.72489959839358
aF93.77510040160642
aF93.82530120481928
aF93.87550200803213
aF93.92570281124497
aF93.97590361445783
aF94.02610441767068
aF94.07630522088354
aF94.12650602409639
aF94.17670682730923
aF94.22690763052209
aF94.27710843373494
aF94.3273092369478
aF94.37751004016064
aF94.42771084337349
aF94.47791164658635
aF94.5281124497992
aF94.57831325301204
aF94.6285140562249
aF94.67871485943775
aF94.7289156626506
aF94.77911646586345
aF94.8293172690763
aF94.87951807228916
aF94.929718875502
aF94.97991967871486
aF95.03012048192771
aF95.08032128514056
aF95.13052208835342
aF95.18072289156626
aF95.23092369477912
aF95.28112449799197
aF95.33132530120481
aF95.38152610441767
aF95.43172690763052
aF95.48192771084338
aF95.53212851405623
aF95.58232931726907
aF95.63253012048193
aF95.68273092369478
aF95.73293172690764
aF95.78313253012048
aF95.83333333333333
aF95.88353413654619
aF95.93373493975903
aF95.9839357429719
aF96.03413654618474
aF96.08433734939759
aF96.13453815261045
aF96.18473895582329
aF96.23493975903614
aF96.285140562249
aF96.33534136546184
aF96.3855421686747
aF96.43574297188755
aF96.4859437751004
aF96.53614457831326
aF96.5863453815261
aF96.63654618473896
aF96.6867469879518
aF96.73694779116465
aF96.78714859437751
aF96.83734939759036
aF96.88755020080322
aF96.93775100401606
aF96.98795180722891
aF97.03815261044177
aF97.08835341365462
aF97.13855421686748
aF97.18875502008032
aF97.23895582329317
aF97.28915662650603
aF97.33935742971887
aF97.38955823293173
aF97.43975903614458
aF97.48995983935743
aF97.54016064257029
aF97.59036144578313
aF97.64056224899599
aF97.69076305220884
aF97.74096385542168
aF97.79116465863454
aF97.84136546184739
aF97.89156626506023
aF97.9417670682731
aF97.99196787148594
aF98.0421686746988
aF98.09236947791165
aF98.14257028112449
aF98.19277108433735
aF98.2429718875502
aF98.29317269076306
aF98.3433734939759
aF98.39357429718875
aF98.44377510040161
aF98.49397590361446
aF98.54417670682732
aF98.59437751004016
aF98.644578313253
aF98.69477911646587
aF98.74497991967871
aF98.79518072289157
aF98.84538152610442
aF98.89558232931726
aF98.94578313253012
aF98.99598393574297
aF99.04618473895583
aF99.09638554216868
aF99.14658634538152
aF99.19678714859438
aF99.24698795180723
aF99.29718875502007
aF99.34738955823293
aF99.39759036144578
aF99.44779116465864
aF99.49799196787149
aF99.54819277108433
aF99.59839357429719
aF99.64859437751004
aF99.6987951807229
aF99.74899598393574
aF99.79919678714859
aF99.84939759036145
aF99.8995983935743
aF99.94979919678715
a(lp1
F17.977402394003803
aF27.04720886005146
aF33.991497930417275
aF38.52500279673342
aF42.641794384159304
aF45.04418838796286
aF46.79774023940038
aF48.67994182794496
aF53.40082783309095
aF54.59223626803893
aF55.487190960957605
aF56.429690121937575
aF57.92594249916098
aF58.94675019577134
aF59.93120035798188
aF61.44982660252825
aF62.137823022709476
aF63.54737666405638
aF64.99888130663385
aF65.46313905358541
aF65.80154379684528
aF66.20147667524331
aF67.72010291978968
aF68.00536972815752
aF68.40530260655554
aF68.61785434612372
aF69.1576238952903
aF69.3869560353507
aF69.82604318156393
aF70.60912853786778
aF70.81329007718985
aF71.29153149121825
aF71.60196890032442
aF71.73621210426222
aF71.90401610918447
aF72.91643360554872
aF73.03948987582504
aF73.36670768542342
aF73.53451169034568
aF74.09385837341985
aF74.48819778498714
aF74.60286385501735
aF75.21255173956818
aF75.6432486855353
aF75.93410896073387
aF76.11030316590222
aF76.38717977402393
aF76.63608904799194
aF76.78990938583735
aF76.89618525562143
aF76.9661035910057
aF77.06398926054368
aF77.27094753328113
aF77.39400380355744
aF77.53104374091062
aF77.74918894730955
aF77.86665175075512
aF78.16030875936906
aF78.43159190066002
aF78.55744490435171
aF78.7699966439199
aF78.85110191296566
aF78.94059738225752
aF79.21467725696387
aF79.31815639333259
aF79.39646492896297
aF79.82156840809934
aF80.08166461572883
aF80.22150128649737
aF80.29701308871239
aF80.47041056046538
aF80.63262109855688
aF80.78644143640228
aF80.89271730618637
aF80.91229444009397
aF81.11925271283141
aF81.2059514487079
aF81.24790244993846
aF81.37095872021479
aF81.61707126076742
aF81.69817652981318
aF81.7541111981206
aF81.78487526568968
aF81.81563933325876
aF82.06454860722675
aF82.12048327553417
aF82.156840809934
aF82.17921467725697
aF82.27710034679494
aF82.33303501510235
aF82.36379908267143
aF82.52880635417831
aF82.63508222396241
aF82.83924376328449
aF82.90356863183801
aF83.01264123503748
aF83.09094977066786
aF83.24756684192863
aF83.37901331245105
aF83.46571204832755
aF83.48808591565052
aF83.53003691688109
aF83.59715851884998
aF83.68665398814186
aF83.80132005817205
aF83.84606779281799
aF83.89920572771004
aF83.91878286161763
aF83.98590446358654
aF84.07260319946303
aF84.11175746727822
aF84.20404966998545
aF84.26278107170825
aF84.30752880635418
aF84.31871574001566
aF84.37185367490771
aF84.44736547712272
aF84.53126747958385
aF84.57042174739904
aF84.59559234813737
aF84.66551068352165
aF84.71025841816758
aF84.77458328672111
aF84.79975388745945
aF84.88365588992058
aF84.90882649065891
aF84.94238729164336
aF84.97035462579707
aF85.01230562702763
aF85.06824029533504
aF85.09061416265801
aF85.12417496364246
aF85.20248349927284
aF85.21926389976507
aF85.26960510124175
aF85.33952343662602
aF85.38147443785658
aF85.39545810493344
aF85.49614050788679
aF85.5045307081329
aF85.52970130887124
aF85.64157064548607
aF85.64716411231682
aF85.69191184696275
aF85.7534399821009
aF85.78140731625462
aF85.81496811723906
aF85.84852891822351
aF85.97717865533058
aF85.98277212216132
aF86.00234925606891
aF86.03870679046874
aF86.08345452511466
aF86.11701532609912
aF86.21769772905246
aF86.30159973151359
aF86.33516053249804
aF86.3966886676362
aF86.43584293545139
aF86.47499720326658
aF86.50016780400492
aF86.51694820449714
aF86.530931871574
aF86.57288287280457
aF86.60644367378902
aF86.63161427452735
aF86.67915874258865
aF86.70432934332699
aF86.72110974381921
aF86.77984114554201
aF86.80780847969571
aF86.84416601409553
aF86.86094641458776
aF86.92247454972592
aF86.93086474997203
aF86.96722228437186
aF87.03434388634075
aF87.06231122049446
aF87.0874818212328
aF87.16019689003244
aF87.21333482492449
aF87.21892829175523
aF87.25528582615505
aF87.2888466271395
aF87.31961069470859
aF87.3280008949547
aF87.34198456203154
aF87.37274862960062
aF87.45944736547712
aF87.48461796621547
aF87.50699183353842
aF87.56292650184585
aF87.61606443673789
aF87.66640563821457
aF87.70555990602976
aF87.71395010627587
aF87.7307305067681
aF87.76429130775254
aF87.78107170824477
aF87.79505537532162
aF87.8453965767983
aF87.8649737107059
aF87.93768877950554
aF87.94607897975165
aF87.96565611365925
aF87.98243651415147
aF88.02159078196667
aF88.06913525002797
aF88.08871238393556
aF88.10269605101242
aF88.15024051907372
aF88.19219152030429
aF88.20337845396577
aF88.2481261886117
aF88.30126412350374
aF88.39075959279562
aF88.4215236603647
aF88.45508446134914
aF88.46067792817989
aF88.47745832867211
aF88.51940932990267
aF88.55017339747175
aF88.55856359771786
aF88.58093746504083
aF88.5837341984562
aF88.61170153260991
aF88.62009173285603
aF88.64526233359436
aF88.68161986799419
aF88.72077413580938
aF88.74594473654771
aF88.79628593802438
aF88.81026960510124
aF88.82984673900884
aF88.84103367267032
aF88.84662713950107
aF88.8522206063318
aF88.87459447365477
aF88.88298467390088
aF88.92773240854682
aF88.9389193422083
aF88.96129320953126
aF88.97527687660812
aF89.00044747734646
aF89.02002461125406
aF89.0451952119924
aF89.04799194540776
aF89.12630048103814
aF89.12909721445352
aF89.15706454860722
aF89.16545474885334
aF89.17664168251483
aF89.21579595033002
aF89.26334041839132
aF89.28571428571429
aF89.30529141962188
aF89.32486855352948
aF89.33046202036022
aF89.37800648842152
aF89.4283476898982
aF89.43673789014431
aF89.45911175746728
aF89.4954692918671
aF89.50385949211321
aF89.50945295894395
aF89.5150464257747
aF89.53462355968229
aF89.562590893836
aF89.57937129432823
aF89.62691576238953
aF89.6492896297125
aF89.66327329678936
aF89.67446023045083
aF89.68844389752769
aF89.70242756460455
aF89.72200469851214
aF89.73319163217361
aF89.75276876608122
aF89.77793936681955
aF89.79751650072716
aF89.81989036805011
aF89.82548383488086
aF89.85345116903457
aF89.86184136928068
aF89.8702315695268
aF89.8702315695268
aF89.90099563709587
aF89.93175970466496
aF89.95133683857254
aF89.9653205056494
aF89.99049110638774
aF90.00727150687996
aF90.01845844054145
aF90.03803557444904
aF90.06040944177201
aF90.09397024275646
aF90.11354737666406
aF90.13312451057165
aF90.16388857814073
aF90.16948204497147
aF90.18905917887906
aF90.20304284595592
aF90.23940038035575
aF90.25058731401722
aF90.25897751426334
aF90.27016444792483
aF90.27855464817094
aF90.29813178207853
aF90.30372524890927
aF90.3205056494015
aF90.3400827833091
aF90.35126971697058
aF90.35965991721669
aF90.39042398478577
aF90.40161091844725
aF90.41839131893948
aF90.42118805235485
aF90.44356191967782
aF90.44915538650856
aF90.50788678823135
aF90.53305738896968
aF90.54424432263117
aF90.55543125629265
aF90.56382145653876
aF90.59458552410784
aF90.62255285826156
aF90.64772345899989
aF90.65052019241526
aF90.65331692583062
aF90.66730059290748
aF90.7036581273073
aF90.74001566170713
aF90.74001566170713
aF90.78196666293769
aF90.81552746392214
aF90.84908826490658
aF90.8574784651527
aF90.87985233247566
aF90.905022933214
aF90.90781966662938
aF90.9246000671216
aF90.93299026736771
aF90.94138046761383
aF90.95816086810605
aF90.9637543349368
aF90.98892493567513
aF91.00570533616735
aF91.01409553641346
aF91.03087593690569
aF91.03087593690569
aF91.05604653764404
aF91.07003020472088
aF91.08681060521312
aF91.11477793936682
aF91.15672894059738
aF91.17630607450498
aF91.19588320841257
aF91.2406309430585
aF91.24342767647389
aF91.26859827721222
aF91.28258194428906
aF91.28817541111981
aF91.2993623447813
aF91.32173621210426
aF91.34970354625797
aF91.3664839467502
aF91.38885781407316
aF91.39445128090391
aF91.39724801431927
aF91.41123168139613
aF91.4140284148115
aF91.45877614945744
aF91.47275981653429
aF91.47555654994966
aF91.4811500167804
aF91.50352388410337
aF91.52310101801096
aF91.55386508558004
aF91.5678487526569
aF91.59022261997987
aF91.60420628705671
aF91.61818995413357
aF91.62378342096432
aF91.63217362121043
aF91.63776708804117
aF91.64895402170265
aF91.6545474885334
aF91.65734422194876
aF91.66014095536414
aF91.67132788902562
aF91.68531155610248
aF91.69370175634859
aF91.71887235708692
aF91.72726255733303
aF91.75522989148675
aF91.75522989148675
aF91.76082335831748
aF91.76641682514823
aF91.78040049222508
aF91.7887906924712
aF91.80836782637878
aF91.81116455979416
aF91.82235149345564
aF91.84472536077861
aF91.85031882760936
aF91.85870902785547
aF91.86709922810158
aF91.88667636200917
aF91.88667636200917
aF91.89786329567066
aF91.92023716299363
aF91.923033896409
aF91.94540776373196
aF91.96498489763955
aF91.99015549837789
aF91.99574896520863
aF91.99854569862401
aF92.02651303277771
aF92.03210649960846
aF92.04049669985457
aF92.04609016668532
aF92.07126076742365
aF92.07685423425438
aF92.09363463474662
aF92.09363463474662
aF92.11321176865421
aF92.11880523548496
aF92.13558563597718
aF92.15795950330015
aF92.17473990379237
aF92.1915203042846
aF92.19431703769996
aF92.1999105045307
aF92.20550397136145
aF92.21669090502293
aF92.22508110526904
aF92.23347130551515
aF92.23626803893053
aF92.23626803893053
aF92.26143863966887
aF92.26423537308423
aF92.26703210649961
aF92.26982883991498
aF92.27262557333034
aF92.28381250699184
aF92.28940597382258
aF92.3061863743148
aF92.31457657456092
aF92.34254390871462
aF92.34254390871462
aF92.35093410896073
aF92.37890144311444
aF92.38169817652981
aF92.41525897751427
aF92.42644591117575
aF92.42644591117575
aF92.43763284483722
aF92.46560017899094
aF92.47399037923705
aF92.49916097997539
aF92.51034791363688
aF92.5271283141291
aF92.54111198120596
aF92.54670544803669
aF92.56068911511355
aF92.58026624902115
aF92.59704664951337
aF92.60543684975949
aF92.60543684975949
aF92.60823358317485
aF92.62501398366707
aF92.64459111757468
aF92.64459111757468
aF92.65577805123615
aF92.66416825148227
aF92.66976171831301
aF92.68374538538987
aF92.69213558563598
aF92.69493231905135
aF92.70332251929746
aF92.7089159861282
aF92.71730618637432
aF92.72569638662043
aF92.72569638662043
aF92.74527352052802
aF92.7480702539434
aF92.75366372077414
aF92.77044412126637
aF92.7956147220047
aF92.81519185591229
aF92.81519185591229
aF92.82917552298915
aF92.83476898981989
aF92.84595592348137
aF92.85993959055823
aF92.86553305738897
aF92.87671999105045
aF92.89070365812731
aF92.89350039154267
aF92.89629712495805
aF92.92146772569639
aF92.92706119252713
aF92.97180892717306
aF92.98299586083455
aF92.99697952791139
aF93.03333706231122
aF93.03333706231122
aF93.03613379572658
aF93.03893052914196
aF93.05850766304955
aF93.08647499720327
aF93.09766193086475
aF93.09766193086475
aF93.10605213111086
aF93.11444233135697
aF93.14520639892605
aF93.14800313234143
aF93.17597046649513
aF93.18436066674124
aF93.18715740015662
aF93.18995413357199
aF93.1983443338181
aF93.1983443338181
aF93.22071820114107
aF93.22351493455643
aF93.22351493455643
aF93.22910840138718
aF93.23749860163329
aF93.25427900212551
aF93.25987246895626
aF93.27105940261774
aF93.27105940261774
aF93.27665286944848
aF93.29063653652534
aF93.30182347018682
aF93.31580713726368
aF93.31860387067904
aF93.3325875377559
aF93.3325875377559
aF93.34377447141739
aF93.36335160532498
aF93.37453853898647
aF93.37733527240184
aF93.37733527240184
aF93.38292873923258
aF93.38292873923258
aF93.38852220606331
aF93.3997091397248
aF93.41089607338628
aF93.43326994070925
aF93.43886340754
aF93.45284707461684
aF93.46123727486297
aF93.47522094193981
aF93.50039154267816
aF93.51157847633964
aF93.51157847633964
aF93.52276541000111
aF93.5255621434165
aF93.53674907707797
aF93.54234254390872
aF93.5535294775702
aF93.5535294775702
aF93.57030987806242
aF93.58149681172391
aF93.58709027855465
aF93.59827721221613
aF93.60666741246224
aF93.61785434612372
aF93.61785434612372
aF93.63183801320058
aF93.63743148003132
aF93.64582168027744
aF93.65141514710818
aF93.65700861393891
aF93.66260208076966
aF93.66539881418502
aF93.67099228101577
aF93.69056941492337
aF93.6961628817541
aF93.6961628817541
aF93.70175634858485
aF93.71294328224634
aF93.72133348249245
aF93.72692694932319
aF93.73252041615393
aF93.7353171495693
aF93.75209755006154
aF93.77726815079987
aF93.78845508446135
aF93.81082895178432
aF93.8220158854458
aF93.8220158854458
aF93.83599955252265
aF93.84438975276876
aF93.87795055375322
aF93.88634075399933
aF93.88634075399933
aF93.89193422083007
aF93.89752768766081
aF93.90871462132229
aF93.92269828839915
aF93.93947868889137
aF93.94227542230675
aF93.9562590893836
aF93.96464928962972
aF93.96744602304508
aF93.9758362232912
aF93.98422642353731
aF93.98702315695267
aF93.98981989036805
aF93.99541335719879
aF94.00100682402953
aF94.00380355744491
aF94.02897415818325
aF94.02897415818325
aF94.03456762501398
aF94.03456762501398
aF94.05134802550621
aF94.05973822575233
aF94.05973822575233
aF94.05973822575233
aF94.06533169258306
aF94.0709251594138
aF94.08770555990603
aF94.09329902673677
aF94.09889249356752
aF94.10448596039825
aF94.10728269381363
aF94.110079427229
aF94.12406309430585
aF94.14084349479808
aF94.14643696162882
aF94.15203042845955
aF94.15482716187493
aF94.17160756236716
aF94.17440429578252
aF94.17999776261327
aF94.19118469627475
aF94.19957489652086
aF94.19957489652086
aF94.19957489652086
aF94.21076183018235
aF94.2247454972592
aF94.2247454972592
aF94.22754223067457
aF94.24152589775143
aF94.24711936458216
aF94.25830629824365
aF94.25830629824365
aF94.2638997650744
aF94.26669649848976
aF94.27788343215124
aF94.28907036581273
aF94.2918670992281
aF94.29466383264348
aF94.29466383264348
aF94.30585076630496
aF94.31424096655107
aF94.32542790021255
aF94.32542790021255
aF94.32822463362793
aF94.33661483387404
aF94.34220830070478
aF94.34780176753551
aF94.34780176753551
aF94.35339523436626
aF94.358988701197
aF94.358988701197
aF94.36458216802774
aF94.37297236827385
aF94.38136256851998
aF94.39254950218145
aF94.41772010291979
aF94.42331356975053
aF94.43170376999664
aF94.44009397024276
aF94.44848417048887
aF94.45407763731961
aF94.45967110415035
aF94.46806130439647
aF94.46806130439647
aF94.4736547712272
aF94.48204497147331
aF94.49043517171943
aF94.4932319051348
aF94.50441883879628
aF94.53238617295
aF94.54916657344222
aF94.55476004027297
aF94.55476004027297
aF94.55755677368833
aF94.5603535071037
aF94.57433717418056
aF94.57713390759592
aF94.58552410784203
aF94.59671104150353
aF94.607897975165
aF94.61349144199575
aF94.61628817541111
aF94.62467837565723
aF94.63027184248797
aF94.63306857590335
aF94.63306857590335
aF94.64145877614946
aF94.64145877614946
aF94.65264570981094
aF94.67222284371854
aF94.68340977738002
aF94.69179997762613
aF94.70019017787224
aF94.70858037811836
aF94.71697057836447
aF94.71976731177985
aF94.72815751202596
aF94.72815751202596
aF94.72815751202596
aF94.74493791251818
aF94.74773464593355
aF94.74773464593355
aF94.74773464593355
aF94.75053137934891
aF94.7617183130104
aF94.77290524667188
aF94.78688891374874
aF94.7896856471641
aF94.8008725808256
aF94.80366931424096
aF94.80646604765634
aF94.80926278107171
aF94.80926278107171
aF94.81765298131782
aF94.82044971473319
aF94.82604318156393
aF94.83443338181004
aF94.8484170488869
aF94.85680724913301
aF94.85680724913301
aF94.85680724913301
aF94.86799418279449
aF94.87358764962524
aF94.87358764962524
aF94.88477458328673
aF94.90155498377895
aF94.91274191744043
aF94.93791251817876
aF94.94070925159414
aF94.94630271842487
aF94.95469291867099
aF94.96028638550173
aF94.96308311891711
aF94.96867658574784
aF94.96867658574784
aF94.96867658574784
aF94.97147331916322
aF94.97427005257859
aF94.98545698624007
aF94.98825371965545
aF94.98825371965545
aF94.98825371965545
aF94.99384718648618
aF94.99944065331692
aF95.00783085356304
aF95.00783085356304
aF95.01901778722453
aF95.04978185479361
aF95.06096878845509
aF95.06376552187045
aF95.0693589887012
aF95.0693589887012
aF95.0693589887012
aF95.07215572211656
aF95.07215572211656
aF95.07774918894731
aF95.08054592236267
aF95.0889361226088
aF95.09452958943953
aF95.09732632285491
aF95.10571652310102
aF95.11130998993175
aF95.11410672334713
aF95.11970019017787
aF95.12529365700861
aF95.13368385725472
aF95.13368385725472
aF95.14207405750084
aF95.14766752433158
aF95.14766752433158
aF95.15326099116233
aF95.15605772457769
aF95.1644479248238
aF95.17004139165455
aF95.17004139165455
aF95.17843159190066
aF95.18402505873141
aF95.18402505873141
aF95.18961852556214
aF95.19241525897752
aF95.19521199239288
aF95.203602192639
aF95.21758585971585
aF95.22038259313122
aF95.22038259313122
aF95.22877279337733
aF95.23436626020808
aF95.23436626020808
aF95.24555319386955
aF95.24555319386955
aF95.25394339411567
aF95.25394339411567
aF95.26513032777716
aF95.26792706119252
aF95.27911399485401
aF95.28470746168475
aF95.29309766193086
aF95.29309766193086
aF95.29589439534624
aF95.30148786217698
aF95.31267479583846
aF95.31267479583846
aF95.31267479583846
aF95.31267479583846
aF95.31547152925383
aF95.3182682626692
aF95.32106499608457
aF95.32106499608457
aF95.32106499608457
aF95.32386172949994
aF95.32665846291532
aF95.3378453965768
aF95.3378453965768
aF95.3378453965768
aF95.34343886340754
aF95.35182906365365
aF95.36581273073051
aF95.36581273073051
aF95.37699966439199
aF95.38259313122273
aF95.3853898646381
aF95.39098333146885
aF95.39098333146885
aF95.39378006488421
aF95.40217026513032
aF95.41056046537643
aF95.41335719879181
aF95.41615393220718
aF95.41895066562255
aF95.42454413245329
aF95.43013759928404
aF95.4329343326994
aF95.43573106611478
aF95.43852779953015
aF95.43852779953015
aF95.4441212663609
aF95.44971473319163
aF95.44971473319163
aF95.44971473319163
aF95.452511466607
aF95.45810493343774
aF95.46090166685312
aF95.46369840026848
aF95.46649513368386
aF95.46929186709923
aF95.46929186709923
aF95.46929186709923
aF95.47488533392998
aF95.48327553417609
aF95.48886900100682
aF95.4916657344222
aF95.49446246783756
aF95.50564940149904
aF95.50564940149904
aF95.51683633516053
aF95.51683633516053
aF95.52242980199128
aF95.52522653540665
aF95.52802326882201
aF95.53361673565276
aF95.54200693589887
aF95.54200693589887
aF95.54760040272961
aF95.55039713614498
aF95.55319386956036
aF95.55319386956036
aF95.55878733639109
aF95.56997427005258
aF95.57556773688331
aF95.58116120371406
aF95.58116120371406
aF95.58395793712943
aF95.5867546705448
aF95.59794160420628
aF95.60353507103703
aF95.60353507103703
aF95.61192527128314
aF95.61192527128314
aF95.6147220046985
aF95.61751873811389
aF95.64268933885222
aF95.64548607226759
aF95.66226647275981
aF95.66785993959056
aF95.66785993959056
aF95.66785993959056
aF95.67065667300592
aF95.67625013983667
aF95.67904687325205
aF95.68184360666741
aF95.68743707349816
aF95.68743707349816
aF95.701420740575
aF95.701420740575
aF95.701420740575
aF95.701420740575
aF95.70421747399038
aF95.71540440765186
aF95.72659134131335
aF95.72659134131335
aF95.72659134131335
aF95.7405750083902
aF95.75455867546705
aF95.75455867546705
aF95.75455867546705
aF95.7601521422978
aF95.7601521422978
aF95.76294887571316
aF95.76294887571316
aF95.76294887571316
aF95.77133907595928
aF95.77413580937466
aF95.77972927620539
aF95.78252600962077
aF95.78252600962077
aF95.7881194764515
aF95.79930641011299
aF95.80489987694374
aF95.80489987694374
aF95.8076966103591
aF95.8076966103591
aF95.8076966103591
aF95.81608681060521
aF95.82168027743596
aF95.82168027743596
aF95.82447701085133
aF95.82727374426669
aF95.83007047768207
aF95.83286721109744
aF95.83286721109744
aF95.8356639445128
aF95.8468508781743
aF95.85244434500504
aF95.86083454525115
aF95.86642801208188
aF95.86922474549726
aF95.88041167915874
aF95.88600514598949
aF95.88600514598949
aF95.88880187940485
aF95.88880187940485
aF95.8943953462356
aF95.8943953462356
aF95.8943953462356
aF95.89719207965096
aF95.89719207965096
aF95.90278554648171
aF95.92515941380468
aF95.93075288063542
aF95.93075288063542
aF95.93075288063542
aF95.93634634746616
aF95.9419398142969
aF95.9419398142969
aF95.95872021478912
aF95.96431368161987
aF95.97270388186598
aF95.98389081552746
aF95.98389081552746
aF95.99228101577357
aF95.99507774918895
aF96.00626468285043
aF96.01185814968117
aF96.01745161651192
aF96.02024834992729
aF96.02304508334265
aF96.03423201700414
aF96.03423201700414
aF96.03702875041951
aF96.04262221725025
aF96.04262221725025
aF96.05101241749637
aF96.06219935115784
aF96.06779281798859
aF96.06779281798859
aF96.07897975165007
aF96.07897975165007
aF96.08457321848081
aF96.09296341872692
aF96.10135361897304
aF96.10135361897304
aF96.10974381921915
aF96.11813401946526
aF96.12093075288064
aF96.12093075288064
aF96.12093075288064
aF96.12932095312675
aF96.13771115337286
aF96.13771115337286
aF96.14330462020361
aF96.14610135361897
aF96.14889808703434
aF96.15728828728045
aF96.15728828728045
aF96.1628817541112
aF96.1628817541112
aF96.16567848752656
aF96.16567848752656
aF96.16847522094194
aF96.16847522094194
aF96.16847522094194
aF96.17966215460342
aF96.18525562143417
aF96.18525562143417
aF96.18525562143417
aF96.18805235484953
aF96.19084908826491
aF96.19364582168028
aF96.20203602192639
aF96.20762948875714
aF96.22161315583399
aF96.22161315583399
aF96.22161315583399
aF96.22161315583399
aF96.22440988924936
aF96.22720662266472
aF96.23559682291084
aF96.23559682291084
aF96.24398702315695
aF96.25517395681844
aF96.26076742364918
aF96.26356415706455
aF96.26636089047992
aF96.2691576238953
aF96.28314129097214
aF96.28593802438752
aF96.29153149121825
aF96.29432822463363
aF96.30271842487974
aF96.30831189171049
aF96.31110862512585
aF96.31110862512585
aF96.3167020919566
aF96.31949882537197
aF96.31949882537197
aF96.32509229220271
aF96.32509229220271
aF96.32788902561808
aF96.33068575903344
aF96.33068575903344
aF96.33627922586419
aF96.33627922586419
aF96.33627922586419
aF96.33627922586419
aF96.33627922586419
aF96.33627922586419
aF96.34187269269493
aF96.34187269269493
aF96.3446694261103
aF96.3446694261103
aF96.3446694261103
aF96.34746615952568
aF96.34746615952568
aF96.35305962635641
aF96.35865309318716
aF96.35865309318716
aF96.37263676026402
aF96.38382369392549
aF96.38382369392549
aF96.38662042734087
aF96.38662042734087
aF96.38662042734087
aF96.38662042734087
aF96.38941716075624
aF96.3922138941716
aF96.3922138941716
aF96.39501062758698
aF96.39780736100235
aF96.39780736100235
aF96.4034008278331
aF96.40619756124846
aF96.40899429466383
aF96.41179102807921
aF96.41179102807921
aF96.41738449490994
aF96.41738449490994
aF96.42018122832532
aF96.42857142857143
aF96.42857142857143
aF96.42857142857143
aF96.43416489540218
aF96.43975836223291
aF96.44255509564829
aF96.44255509564829
aF96.44814856247902
aF96.44814856247902
aF96.44814856247902
aF96.45933549614051
aF96.45933549614051
aF96.45933549614051
aF96.46492896297124
aF96.46492896297124
aF96.46772569638662
aF96.47052242980199
aF96.47052242980199
aF96.47052242980199
aF96.47052242980199
aF96.47331916321737
aF96.47611589663273
aF96.4789126300481
aF96.4789126300481
aF96.48450609687885
aF96.49009956370959
aF96.49009956370959
aF96.49569303054032
aF96.49569303054032
aF96.49569303054032
aF96.4984897639557
aF96.50687996420181
aF96.51527016444793
aF96.51527016444793
aF96.51806689786329
aF96.52366036469404
aF96.5264570981094
aF96.53205056494015
aF96.53205056494015
aF96.53205056494015
aF96.53205056494015
aF96.53205056494015
aF96.53205056494015
aF96.53205056494015
aF96.5376440317709
aF96.546034232017
aF96.546034232017
aF96.55442443226312
aF96.55442443226312
aF96.55442443226312
aF96.55722116567848
aF96.55722116567848
aF96.56281463250923
aF96.5656113659246
aF96.57400156617071
aF96.57400156617071
aF96.57400156617071
aF96.57679829958609
aF96.57679829958609
aF96.57959503300145
aF96.58239176641682
aF96.59357870007831
aF96.59357870007831
aF96.59357870007831
aF96.59357870007831
aF96.60476563373979
aF96.6131558339859
aF96.61595256740128
aF96.6327329678935
aF96.64112316813961
aF96.64671663497036
aF96.64671663497036
aF96.65510683521647
aF96.65790356863184
aF96.65790356863184
aF96.65790356863184
aF96.65790356863184
aF96.6607003020472
aF96.6607003020472
aF96.66629376887795
aF96.67468396912406
aF96.67748070253944
aF96.6802774359548
aF96.6802774359548
aF96.68587090278555
aF96.68587090278555
aF96.69146436961628
aF96.69146436961628
aF96.69146436961628
aF96.6998545698624
aF96.71383823693925
aF96.72782190401611
aF96.72782190401611
aF96.72782190401611
aF96.73341537084686
aF96.73341537084686
aF96.73900883767759
aF96.73900883767759
aF96.74180557109297
aF96.74460230450833
aF96.75019577133908
aF96.75019577133908
aF96.75299250475445
aF96.75578923816981
aF96.75578923816981
aF96.75578923816981
aF96.75858597158519
aF96.75858597158519
aF96.76138270500056
aF96.76417943841594
aF96.76417943841594
aF96.7669761718313
aF96.7669761718313
aF96.7669761718313
aF96.77256963866205
aF96.77816310549278
aF96.78095983890816
aF96.78375657232353
aF96.78375657232353
aF96.78375657232353
aF96.78935003915427
aF96.78935003915427
aF96.79214677256964
aF96.79214677256964
aF96.80053697281575
aF96.80333370623113
aF96.81172390647724
aF96.81731737330797
aF96.82011410672335
aF96.82850430696946
aF96.83130104038483
aF96.83130104038483
aF96.83130104038483
aF96.83130104038483
aF96.8340977738002
aF96.83689450721558
aF96.83689450721558
aF96.83689450721558
aF96.83969124063094
aF96.84808144087705
aF96.84808144087705
aF96.8536749077078
aF96.86206510795391
aF96.86206510795391
aF96.86486184136928
aF96.86765857478466
aF96.86765857478466
aF96.87045530820002
aF96.87045530820002
aF96.87045530820002
aF96.87884550844613
aF96.87884550844613
aF96.87884550844613
aF96.87884550844613
aF96.8816422418615
aF96.8816422418615
aF96.88443897527688
aF96.88443897527688
aF96.88443897527688
aF96.88443897527688
aF96.89003244210762
aF96.9012193757691
aF96.90401610918447
aF96.90401610918447
aF96.90401610918447
aF96.90401610918447
aF96.90960957601521
aF96.91799977626133
aF96.92079650967669
aF96.93198344333818
aF96.93478017675355
aF96.9403736435843
aF96.9403736435843
aF96.95156057724577
aF96.95156057724577
aF96.95156057724577
aF96.95156057724577
aF96.95156057724577
aF96.95435731066115
aF96.95435731066115
aF96.95435731066115
aF96.95435731066115
aF96.95715404407652
aF96.95995077749188
aF96.95995077749188
aF96.96274751090726
aF96.96274751090726
aF96.96274751090726
aF96.96274751090726
aF96.96274751090726
aF96.96554424432263
aF96.97393444456874
aF96.98232464481485
aF96.98232464481485
aF96.98232464481485
aF96.98512137823023
aF96.99071484506096
aF96.99071484506096
aF96.99071484506096
aF96.99351157847634
aF96.99351157847634
aF96.99351157847634
aF96.99351157847634
aF96.99630831189171
aF96.99910504530708
aF96.99910504530708
aF96.99910504530708
aF96.99910504530708
aF96.99910504530708
aF97.00469851213782
aF97.00469851213782
aF97.00469851213782
aF97.00469851213782
aF97.00749524555319
aF97.00749524555319
aF97.01588544579931
aF97.01588544579931
aF97.01588544579931
aF97.01868217921468
aF97.01868217921468
aF97.02147891263004
aF97.02147891263004
aF97.02147891263004
aF97.02147891263004
aF97.02707237946079
aF97.02707237946079
aF97.02986911287616
aF97.0354625797069
aF97.03825931312227
aF97.03825931312227
aF97.03825931312227
aF97.03825931312227
aF97.04105604653765
aF97.04385277995301
aF97.04385277995301
aF97.04664951336838
aF97.04664951336838
aF97.04944624678376
aF97.05224298019913
aF97.0550397136145
aF97.0550397136145
aF97.06622664727598
aF97.06622664727598
aF97.06902338069135
aF97.06902338069135
aF97.06902338069135
aF97.06902338069135
aF97.07182011410673
aF97.08021031435284
aF97.08021031435284
aF97.0830070477682
aF97.08580378118357
aF97.08580378118357
aF97.08580378118357
aF97.08860051459895
aF97.08860051459895
aF97.08860051459895
aF97.09699071484506
aF97.09978744826043
aF97.11097438192192
aF97.11097438192192
aF97.11097438192192
aF97.11097438192192
aF97.11097438192192
aF97.11377111533729
aF97.11656784875265
aF97.1221613155834
aF97.1221613155834
aF97.1221613155834
aF97.1221613155834
aF97.1221613155834
aF97.12495804899876
aF97.12775478241414
aF97.12775478241414
aF97.12775478241414
aF97.12775478241414
aF97.12775478241414
aF97.12775478241414
aF97.12775478241414
aF97.13334824924488
aF97.13334824924488
aF97.13334824924488
aF97.13334824924488
aF97.13614498266026
aF97.13894171607562
aF97.13894171607562
aF97.13894171607562
aF97.141738449491
aF97.14733191632173
aF97.15012864973711
aF97.15292538315248
aF97.15292538315248
aF97.15572211656784
aF97.15851884998322
aF97.16690905022934
aF97.17250251706007
aF97.18368945072156
aF97.19207965096767
aF97.19207965096767
aF97.19487638438304
aF97.20046985121378
aF97.20046985121378
aF97.20606331804453
aF97.2088600514599
aF97.2088600514599
aF97.2088600514599
aF97.21165678487526
aF97.21165678487526
aF97.21165678487526
aF97.21165678487526
aF97.217250251706
aF97.22004698512139
aF97.22564045195212
aF97.22564045195212
aF97.22564045195212
aF97.22564045195212
aF97.22564045195212
aF97.22564045195212
aF97.23123391878286
aF97.23682738561361
aF97.23962411902897
aF97.24242085244434
aF97.25360778610583
aF97.25920125293656
aF97.26199798635194
aF97.26479471976731
aF97.26479471976731
aF97.26759145318269
aF97.27318492001342
aF97.27318492001342
aF97.27318492001342
aF97.27318492001342
aF97.2759816534288
aF97.2759816534288
aF97.2759816534288
aF97.28157512025953
aF97.28157512025953
aF97.28157512025953
aF97.28437185367491
aF97.28437185367491
aF97.28716858709028
aF97.28996532050564
aF97.29276205392102
aF97.29555878733639
aF97.29555878733639
aF97.29555878733639
aF97.29555878733639
aF97.29555878733639
aF97.29555878733639
aF97.29555878733639
aF97.29555878733639
aF97.29835552075176
aF97.3039489875825
aF97.3039489875825
aF97.3039489875825
aF97.3039489875825
aF97.3039489875825
aF97.3039489875825
aF97.30674572099788
aF97.31233918782861
aF97.31233918782861
aF97.31513592124399
aF97.31793265465936
aF97.31793265465936
aF97.32072938807472
aF97.32632285490547
aF97.32911958832084
aF97.33191632173622
aF97.33471305515158
aF97.34030652198233
aF97.34869672222844
aF97.3514934556438
aF97.35708692247455
aF97.35708692247455
aF97.35988365588992
aF97.3626803893053
aF97.3626803893053
aF97.36827385613603
aF97.37386732296677
aF97.37666405638214
aF97.37666405638214
aF97.37946078979752
aF97.38225752321289
aF97.38225752321289
aF97.38785099004363
aF97.38785099004363
aF97.390647723459
aF97.390647723459
aF97.390647723459
aF97.390647723459
aF97.39344445687438
aF97.39903792370511
aF97.40463139053585
aF97.40463139053585
aF97.40742812395122
aF97.40742812395122
aF97.40742812395122
aF97.40742812395122
aF97.4102248573666
aF97.41302159078197
aF97.41302159078197
aF97.41581832419733
aF97.41581832419733
aF97.41581832419733
aF97.41581832419733
aF97.41581832419733
aF97.41861505761271
aF97.42141179102808
aF97.42141179102808
aF97.42700525785882
aF97.42700525785882
aF97.42980199127419
aF97.43259872468957
aF97.43539545810494
aF97.44378565835105
aF97.44937912518179
aF97.44937912518179
aF97.4577693254279
aF97.4577693254279
aF97.46056605884327
aF97.46615952567402
aF97.46615952567402
aF97.46615952567402
aF97.47454972592013
aF97.4773464593355
aF97.4773464593355
aF97.48293992616624
aF97.48293992616624
aF97.48293992616624
aF97.4857366595816
aF97.49133012641235
aF97.49133012641235
aF97.49133012641235
aF97.49133012641235
aF97.4969235932431
aF97.50251706007383
aF97.50811052690457
aF97.51090726031994
aF97.51090726031994
aF97.51370399373532
aF97.52768766081218
aF97.52768766081218
aF97.53328112764291
aF97.53607786105829
aF97.53607786105829
aF97.54167132788902
aF97.5444680613044
aF97.55006152813513
aF97.55006152813513
aF97.55006152813513
aF97.55006152813513
aF97.55285826155051
aF97.55285826155051
aF97.55565499496588
aF97.55845172838126
aF97.56124846179662
aF97.56124846179662
aF97.56124846179662
aF97.56124846179662
aF97.56124846179662
aF97.56124846179662
aF97.56124846179662
aF97.56124846179662
aF97.56124846179662
aF97.56124846179662
aF97.56404519521199
aF97.56404519521199
aF97.56404519521199
aF97.56404519521199
aF97.56684192862737
aF97.56684192862737
aF97.56963866204273
aF97.5724353954581
aF97.5724353954581
aF97.5724353954581
aF97.57523212887348
aF97.57523212887348
aF97.57802886228885
aF97.58082559570421
aF97.58362232911959
aF97.58362232911959
aF97.58641906253496
aF97.58641906253496
aF97.58641906253496
aF97.58641906253496
aF97.58641906253496
aF97.58641906253496
aF97.58641906253496
aF97.58921579595032
aF97.5920125293657
aF97.60319946302718
aF97.60879292985793
aF97.61158966327329
aF97.61158966327329
aF97.61438639668867
aF97.61718313010404
aF97.61718313010404
aF97.61718313010404
aF97.6199798635194
aF97.62557333035015
aF97.6311667971809
aF97.6311667971809
aF97.6311667971809
aF97.63396353059626
aF97.63955699742701
aF97.63955699742701
aF97.63955699742701
aF97.64515046425775
aF97.65074393108848
aF97.65074393108848
aF97.65354066450386
aF97.65354066450386
aF97.65354066450386
aF97.6591341313346
aF97.66472759816534
aF97.67032106499609
aF97.67032106499609
aF97.67032106499609
aF97.67311779841145
aF97.67311779841145
aF97.67591453182682
aF97.67591453182682
aF97.68150799865757
aF97.68150799865757
aF97.68710146548831
aF97.68710146548831
aF97.68710146548831
aF97.68710146548831
aF97.68710146548831
aF97.68710146548831
aF97.68710146548831
aF97.68710146548831
aF97.68710146548831
aF97.68710146548831
aF97.68710146548831
aF97.68710146548831
aF97.68710146548831
aF97.69269493231906
aF97.69549166573442
aF97.69549166573442
aF97.69549166573442
aF97.69828839914979
aF97.70388186598053
aF97.7066785993959
aF97.7066785993959
aF97.70947533281128
aF97.70947533281128
aF97.71227206622665
aF97.71506879964201
aF97.71506879964201
aF97.71506879964201
aF97.71506879964201
aF97.72066226647276
aF97.7262557333035
aF97.72905246671887
aF97.73184920013425
aF97.73464593354961
aF97.73464593354961
aF97.73744266696498
aF97.73744266696498
aF97.74023940038036
aF97.74303613379573
aF97.74303613379573
aF97.74303613379573
aF97.74583286721109
aF97.74862960062647
aF97.74862960062647
aF97.75142633404184
aF97.7654100011187
aF97.7654100011187
aF97.7654100011187
aF97.7654100011187
aF97.76820673453406
aF97.77100346794944
aF97.7738002013648
aF97.77659693478017
aF97.77659693478017
aF97.77939366819555
aF97.77939366819555
aF97.78219040161092
aF97.78219040161092
aF97.78498713502628
aF97.78498713502628
aF97.78498713502628
aF97.79058060185703
aF97.79058060185703
aF97.7933773352724
aF97.79617406868778
aF97.79897080210314
aF97.80456426893389
aF97.80736100234925
aF97.80736100234925
aF97.81295446918
aF97.82134466942611
aF97.82134466942611
aF97.82693813625686
aF97.82693813625686
aF97.82693813625686
aF97.82693813625686
aF97.82693813625686
aF97.82693813625686
aF97.82693813625686
aF97.82973486967222
aF97.82973486967222
aF97.83532833650297
aF97.83532833650297
aF97.83532833650297
aF97.83532833650297
aF97.83532833650297
aF97.83532833650297
aF97.83812506991833
aF97.83812506991833
aF97.83812506991833
aF97.83812506991833
aF97.83812506991833
aF97.83812506991833
aF97.83812506991833
aF97.8409218033337
aF97.8409218033337
aF97.84371853674908
aF97.84651527016445
aF97.84651527016445
aF97.84651527016445
aF97.84931200357983
aF97.84931200357983
aF97.84931200357983
aF97.84931200357983
aF97.85210873699519
aF97.85770220382594
aF97.86329567065667
aF97.86329567065667
aF97.86609240407205
aF97.86609240407205
aF97.86609240407205
aF97.86609240407205
aF97.86609240407205
aF97.86888913748741
aF97.86888913748741
aF97.87168587090278
aF97.87168587090278
aF97.87448260431816
aF97.87448260431816
aF97.87448260431816
aF97.87448260431816
aF97.87727933773353
aF97.88007607114889
aF97.88287280456427
aF97.88287280456427
aF97.88287280456427
aF97.88287280456427
aF97.88287280456427
aF97.88287280456427
aF97.88566953797964
aF97.888466271395
aF97.888466271395
aF97.888466271395
aF97.888466271395
aF97.888466271395
aF97.888466271395
aF97.888466271395
aF97.888466271395
aF97.888466271395
aF97.89126300481038
aF97.89126300481038
aF97.89685647164113
aF97.8996532050565
aF97.8996532050565
aF97.8996532050565
aF97.8996532050565
aF97.8996532050565
aF97.8996532050565
aF97.90244993847186
aF97.90244993847186
aF97.90244993847186
aF97.90244993847186
aF97.90244993847186
aF97.9080434053026
aF97.9080434053026
aF97.91084013871797
aF97.91084013871797
aF97.91084013871797
aF97.91084013871797
aF97.91084013871797
aF97.91084013871797
aF97.91084013871797
aF97.91363687213335
aF97.91363687213335
aF97.91643360554872
aF97.91643360554872
aF97.91643360554872
aF97.91643360554872
aF97.91643360554872
aF97.91923033896408
aF97.92482380579483
aF97.92482380579483
aF97.92482380579483
aF97.92482380579483
aF97.92482380579483
aF97.9276205392102
aF97.9276205392102
aF97.93041727262558
aF97.93321400604094
aF97.93601073945632
aF97.93601073945632
aF97.93880747287169
aF97.94160420628705
aF97.94160420628705
aF97.94160420628705
aF97.94160420628705
aF97.94160420628705
aF97.94440093970243
aF97.94440093970243
aF97.9471976731178
aF97.9471976731178
aF97.94999440653316
aF97.94999440653316
aF97.94999440653316
aF97.94999440653316
aF97.94999440653316
aF97.94999440653316
aF97.94999440653316
aF97.94999440653316
aF97.94999440653316
aF97.94999440653316
aF97.94999440653316
aF97.94999440653316
aF97.94999440653316
aF97.94999440653316
aF97.94999440653316
aF97.94999440653316
aF97.94999440653316
aF97.95279113994854
aF97.95279113994854
aF97.96118134019466
aF97.96397807361002
aF97.96397807361002
aF97.96397807361002
aF97.96397807361002
aF97.96397807361002
aF97.96677480702539
aF97.96677480702539
aF97.96677480702539
aF97.96957154044077
aF97.96957154044077
aF97.96957154044077
aF97.97236827385613
aF97.98075847410225
aF97.98355520751763
aF97.98355520751763
aF97.98355520751763
aF97.98355520751763
aF97.98914867434836
aF97.98914867434836
aF97.9947421411791
aF97.9947421411791
aF97.9947421411791
aF97.9947421411791
aF97.9947421411791
aF97.9947421411791
aF97.99753887459447
aF97.99753887459447
aF97.99753887459447
aF97.99753887459447
aF97.99753887459447
aF97.99753887459447
aF97.99753887459447
aF97.99753887459447
aF97.99753887459447
aF97.99753887459447
aF97.99753887459447
aF97.99753887459447
aF97.99753887459447
aF97.99753887459447
aF97.99753887459447
aF97.99753887459447
aF97.99753887459447
aF98.00033560800985
aF98.00313234142521
aF98.00313234142521
aF98.00313234142521
aF98.00313234142521
aF98.00313234142521
aF98.00313234142521
aF98.00592907484058
aF98.00592907484058
aF98.00872580825596
aF98.00872580825596
aF98.00872580825596
aF98.00872580825596
aF98.00872580825596
aF98.00872580825596
aF98.00872580825596
aF98.01152254167133
aF98.0143192750867
aF98.01711600850207
aF98.01711600850207
aF98.01711600850207
aF98.01711600850207
aF98.01711600850207
aF98.01711600850207
aF98.01711600850207
aF98.01711600850207
aF98.01711600850207
aF98.01991274191744
aF98.01991274191744
aF98.02270947533282
aF98.02830294216355
aF98.02830294216355
aF98.03669314240966
aF98.03669314240966
aF98.03669314240966
aF98.03669314240966
aF98.03669314240966
aF98.03669314240966
aF98.03948987582504
aF98.03948987582504
aF98.03948987582504
aF98.0422866092404
aF98.0422866092404
aF98.0422866092404
aF98.0422866092404
aF98.0422866092404
aF98.0422866092404
aF98.0422866092404
aF98.0422866092404
aF98.05347354290188
aF98.05627027631726
aF98.05627027631726
aF98.05627027631726
aF98.05627027631726
aF98.05627027631726
aF98.05627027631726
aF98.06186374314801
aF98.06186374314801
aF98.06466047656338
aF98.06745720997874
aF98.06745720997874
aF98.06745720997874
aF98.06745720997874
aF98.06745720997874
aF98.06745720997874
aF98.06745720997874
aF98.06745720997874
aF98.06745720997874
aF98.06745720997874
aF98.06745720997874
aF98.06745720997874
aF98.06745720997874
aF98.06745720997874
aF98.06745720997874
aF98.06745720997874
aF98.06745720997874
aF98.07025394339412
aF98.07025394339412
aF98.07025394339412
aF98.07305067680949
aF98.07584741022485
aF98.07584741022485
aF98.07584741022485
aF98.07584741022485
aF98.07584741022485
aF98.07584741022485
aF98.07584741022485
aF98.07584741022485
aF98.07584741022485
aF98.07584741022485
aF98.07584741022485
aF98.07584741022485
aF98.07584741022485
aF98.07584741022485
aF98.07584741022485
aF98.07584741022485
aF98.07584741022485
aF98.07584741022485
aF98.07584741022485
aF98.07584741022485
aF98.07584741022485
aF98.07584741022485
aF98.07584741022485
aF98.07584741022485
aF98.07584741022485
aF98.07584741022485
aF98.07584741022485
aF98.07584741022485
aF98.07584741022485
aF98.07584741022485
aF98.07584741022485
aF98.07584741022485
aF98.07584741022485
aF98.07584741022485
aF98.07584741022485
aF98.07584741022485
aF98.07584741022485
aF98.07584741022485
aF98.07584741022485
aF98.07584741022485
a(lp2
F0.20080321285140562
aF0.40160642570281124
aF0.6024096385542169
aF0.8032128514056225
aF1.0040160642570282
aF1.2048192771084338
aF1.4056224899598393
aF1.606425702811245
aF1.8072289156626506
aF2.0080321285140563
aF2.208835341365462
aF2.4096385542168677
aF2.610441767068273
aF2.8112449799196786
aF3.0120481927710845
aF3.21285140562249
aF3.4136546184738954
aF3.6144578313253013
aF3.8152610441767068
aF4.016064257028113
aF4.216867469879518
aF4.417670682730924
aF4.618473895582329
aF4.819277108433735
aF5.020080321285141
aF5.220883534136546
aF5.421686746987952
aF5.622489959839357
aF5.823293172690763
aF6.024096385542169
aF6.224899598393574
aF6.42570281124498
aF6.626506024096385
aF6.827309236947791
aF7.028112449799197
aF7.228915662650603
aF7.429718875502008
aF7.6305220883534135
aF7.831325301204819
aF8.032128514056225
aF8.23293172690763
aF8.433734939759036
aF8.634538152610443
aF8.835341365461847
aF9.036144578313253
aF9.236947791164658
aF9.437751004016064
aF9.63855421686747
aF9.839357429718875
aF10.040160642570282
aF10.240963855421686
aF10.441767068273093
aF10.642570281124499
aF10.843373493975903
aF11.04417670682731
aF11.244979919678714
aF11.44578313253012
aF11.646586345381525
aF11.847389558232932
aF12.048192771084338
aF12.248995983935743
aF12.449799196787149
aF12.650602409638553
aF12.85140562248996
aF13.052208835341366
aF13.25301204819277
aF13.453815261044177
aF13.654618473895582
aF13.855421686746988
aF14.056224899598394
aF14.257028112449799
aF14.457831325301205
aF14.65863453815261
aF14.859437751004016
aF15.060240963855422
aF15.261044176706827
aF15.461847389558233
aF15.662650602409638
aF15.863453815261044
aF16.06425702811245
aF16.265060240963855
aF16.46586345381526
aF16.666666666666668
aF16.867469879518072
aF17.068273092369477
aF17.269076305220885
aF17.46987951807229
aF17.670682730923694
aF17.8714859437751
aF18.072289156626507
aF18.27309236947791
aF18.473895582329316
aF18.674698795180724
aF18.87550200803213
aF19.076305220883533
aF19.27710843373494
aF19.477911646586346
aF19.67871485943775
aF19.879518072289155
aF20.080321285140563
aF20.281124497991968
aF20.481927710843372
aF20.68273092369478
aF20.883534136546185
aF21.08433734939759
aF21.285140562248998
aF21.485943775100402
aF21.686746987951807
aF21.88755020080321
aF22.08835341365462
aF22.289156626506024
aF22.48995983935743
aF22.690763052208837
aF22.89156626506024
aF23.092369477911646
aF23.29317269076305
aF23.49397590361446
aF23.694779116465863
aF23.895582329317268
aF24.096385542168676
aF24.29718875502008
aF24.497991967871485
aF24.698795180722893
aF24.899598393574298
aF25.100401606425702
aF25.301204819277107
aF25.502008032128515
aF25.70281124497992
aF25.903614457831324
aF26.104417670682732
aF26.305220883534137
aF26.50602409638554
aF26.70682730923695
aF26.907630522088354
aF27.10843373493976
aF27.309236947791163
aF27.51004016064257
aF27.710843373493976
aF27.91164658634538
aF28.11244979919679
aF28.313253012048193
aF28.514056224899598
aF28.714859437751002
aF28.91566265060241
aF29.116465863453815
aF29.31726907630522
aF29.518072289156628
aF29.718875502008032
aF29.919678714859437
aF30.120481927710845
aF30.32128514056225
aF30.522088353413654
aF30.72289156626506
aF30.923694779116467
aF31.12449799196787
aF31.325301204819276
aF31.526104417670684
aF31.72690763052209
aF31.927710843373493
aF32.1285140562249
aF32.329317269076306
aF32.53012048192771
aF32.730923694779115
aF32.93172690763052
aF33.13253012048193
aF33.333333333333336
aF33.53413654618474
aF33.734939759036145
aF33.93574297188755
aF34.136546184738954
aF34.33734939759036
aF34.53815261044177
aF34.738955823293175
aF34.93975903614458
aF35.140562248995984
aF35.34136546184739
aF35.54216867469879
aF35.7429718875502
aF35.94377510040161
aF36.144578313253014
aF36.34538152610442
aF36.54618473895582
aF36.74698795180723
aF36.94779116465863
aF37.14859437751004
aF37.34939759036145
aF37.55020080321285
aF37.75100401606426
aF37.95180722891566
aF38.15261044176707
aF38.35341365461847
aF38.55421686746988
aF38.75502008032129
aF38.95582329317269
aF39.1566265060241
aF39.3574297188755
aF39.558232931726906
aF39.75903614457831
aF39.95983935742972
aF40.16064257028113
aF40.36144578313253
aF40.562248995983936
aF40.76305220883534
aF40.963855421686745
aF41.16465863453815
aF41.36546184738956
aF41.566265060240966
aF41.76706827309237
aF41.967871485943775
aF42.16867469879518
aF42.369477911646584
aF42.570281124497996
aF42.7710843373494
aF42.971887550200805
aF43.17269076305221
aF43.373493975903614
aF43.57429718875502
aF43.77510040160642
aF43.975903614457835
aF44.17670682730924
aF44.377510040160644
aF44.57831325301205
aF44.77911646586345
aF44.97991967871486
aF45.18072289156626
aF45.381526104417674
aF45.58232931726908
aF45.78313253012048
aF45.98393574297189
aF46.18473895582329
aF46.3855421686747
aF46.5863453815261
aF46.78714859437751
aF46.98795180722892
aF47.18875502008032
aF47.389558232931726
aF47.59036144578313
aF47.791164658634536
aF47.99196787148595
aF48.19277108433735
aF48.393574297188756
aF48.59437751004016
aF48.795180722891565
aF48.99598393574297
aF49.196787148594375
aF49.397590361445786
aF49.59839357429719
aF49.799196787148595
aF50.0
aF50.200803212851405
aF50.40160642570281
aF50.602409638554214
aF50.803212851405625
aF51.00401606425703
aF51.204819277108435
aF51.40562248995984
aF51.606425702811244
aF51.80722891566265
aF52.00803212851405
aF52.208835341365464
aF52.40963855421687
aF52.610441767068274
aF52.81124497991968
aF53.01204819277108
aF53.21285140562249
aF53.4136546184739
aF53.6144578313253
aF53.81526104417671
aF54.01606425702811
aF54.21686746987952
aF54.41767068273092
aF54.618473895582326
aF54.81927710843374
aF55.02008032128514
aF55.22088353413655
aF55.42168674698795
aF55.622489959839356
aF55.82329317269076
aF56.024096385542165
aF56.22489959839358
aF56.42570281124498
aF56.626506024096386
aF56.82730923694779
aF57.028112449799195
aF57.2289156626506
aF57.429718875502004
aF57.630522088353416
aF57.83132530120482
aF58.032128514056225
aF58.23293172690763
aF58.433734939759034
aF58.63453815261044
aF58.83534136546185
aF59.036144578313255
aF59.23694779116466
aF59.437751004016064
aF59.63855421686747
aF59.83935742971887
aF60.04016064257028
aF60.24096385542169
aF60.441767068273094
aF60.6425702811245
aF60.8433734939759
aF61.04417670682731
aF61.24497991967871
aF61.44578313253012
aF61.64658634538153
aF61.84738955823293
aF62.04819277108434
aF62.24899598393574
aF62.44979919678715
aF62.65060240963855
aF62.85140562248996
aF63.05220883534137
aF63.25301204819277
aF63.45381526104418
aF63.65461847389558
aF63.855421686746986
aF64.05622489959839
aF64.2570281124498
aF64.4578313253012
aF64.65863453815261
aF64.85943775100401
aF65.06024096385542
aF65.26104417670683
aF65.46184738955823
aF65.66265060240964
aF65.86345381526104
aF66.06425702811245
aF66.26506024096386
aF66.46586345381526
aF66.66666666666667
aF66.86746987951807
aF67.06827309236948
aF67.26907630522088
aF67.46987951807229
aF67.6706827309237
aF67.8714859437751
aF68.07228915662651
aF68.27309236947791
aF68.47389558232932
aF68.67469879518072
aF68.87550200803213
aF69.07630522088354
aF69.27710843373494
aF69.47791164658635
aF69.67871485943775
aF69.87951807228916
aF70.08032128514056
aF70.28112449799197
aF70.48192771084338
aF70.68273092369478
aF70.88353413654619
aF71.08433734939759
aF71.285140562249
aF71.4859437751004
aF71.6867469879518
aF71.88755020080322
aF72.08835341365462
aF72.28915662650603
aF72.48995983935743
aF72.69076305220884
aF72.89156626506023
aF73.09236947791165
aF73.29317269076306
aF73.49397590361446
aF73.69477911646587
aF73.89558232931726
aF74.09638554216868
aF74.29718875502007
aF74.49799196787149
aF74.6987951807229
aF74.8995983935743
aF75.1004016064257
aF75.3012048192771
aF75.50200803212851
aF75.70281124497993
aF75.90361445783132
aF76.10441767068274
aF76.30522088353413
aF76.50602409638554
aF76.70682730923694
aF76.90763052208835
aF77.10843373493977
aF77.30923694779116
aF77.51004016064257
aF77.71084337349397
aF77.91164658634538
aF78.11244979919678
aF78.3132530120482
aF78.5140562248996
aF78.714859437751
aF78.91566265060241
aF79.11646586345381
aF79.31726907630522
aF79.51807228915662
aF79.71887550200803
aF79.91967871485944
aF80.12048192771084
aF80.32128514056225
aF80.52208835341365
aF80.72289156626506
aF80.92369477911646
aF81.12449799196787
aF81.32530120481928
aF81.52610441767068
aF81.72690763052209
aF81.92771084337349
aF82.1285140562249
aF82.3293172690763
aF82.53012048192771
aF82.73092369477912
aF82.93172690763052
aF83.13253012048193
aF83.33333333333333
aF83.53413654618474
aF83.73493975903614
aF83.93574297188755
aF84.13654618473896
aF84.33734939759036
aF84.53815261044177
aF84.73895582329317
aF84.93975903614458
aF85.14056224899599
aF85.34136546184739
aF85.5421686746988
aF85.7429718875502
aF85.94377510040161
aF86.144578313253
aF86.34538152610442
aF86.54618473895583
aF86.74698795180723
aF86.94779116465864
aF87.14859437751004
aF87.34939759036145
aF87.55020080321285
aF87.75100401606426
aF87.95180722891567
aF88.15261044176707
aF88.35341365461848
aF88.55421686746988
aF88.75502008032129
aF88.95582329317268
aF89.1566265060241
aF89.35742971887551
aF89.5582329317269
aF89.75903614457832
aF89.95983935742971
aF90.16064257028113
aF90.36144578313252
aF90.56224899598394
aF90.76305220883535
aF90.96385542168674
aF91.16465863453816
aF91.36546184738955
aF91.56626506024097
aF91.76706827309236
aF91.96787148594377
aF92.16867469879519
aF92.36947791164658
aF92.570281124498
aF92.7710843373494
aF92.9718875502008
aF93.1726907630522
aF93.37349397590361
aF93.57429718875503
aF93.77510040160642
aF93.97590361445783
aF94.17670682730923
aF94.37751004016064
aF94.57831325301204
aF94.77911646586345
aF94.97991967871486
aF95.18072289156626
aF95.38152610441767
aF95.58232931726907
aF95.78313253012048
aF95.9839357429719
aF96.18473895582329
aF96.3855421686747
aF96.5863453815261
aF96.78714859437751
aF96.98795180722891
aF97.18875502008032
aF97.38955823293173
aF97.59036144578313
aF97.79116465863454
aF97.99196787148594
aF98.19277108433735
aF98.39357429718875
aF98.59437751004016
aF98.79518072289157
aF98.99598393574297
aF99.19678714859438
aF99.39759036144578
aF99.59839357429719
aF99.79919678714859
a(lp3
cnumpy.core.multiarray
scalar
p4
(cnumpy
dtype
p5
(S'f8'
p6
I0
I1
tp7
Rp8
(I3
S'<'
p9
NNNI-1
I-1
I0
tp10
bS'\xcdyi\x97\xcbqJ@'
p11
tp12
Rp13
ag4
(g8
S'\xf3n\x1a\xefigJ@'
p14
tp15
Rp16
ag4
(g8
S'{\xe4\x02\x11\x8a\xc1L@'
p17
tp18
Rp19
ag4
(g8
S'\x8c\xabN\x8f\\ N@'
p20
tp21
Rp22
ag4
(g8
S'\xaew\xc7\xa1\r\xecN@'
p23
tp24
Rp25
ag4
(g8
S'G\xa7\xcd\x19\xb1\x08O@'
p26
tp27
Rp28
ag4
(g8
S'_\xa92\x85?\x02O@'
p29
tp30
Rp31
ag4
(g8
S'X\x0c\xb3\xbc\t\x04O@'
p32
tp33
Rp34
ag4
(g8
S'\t\xf7j\xfb\xdf\x19O@'
p35
tp36
Rp37
ag4
(g8
S'\xedY4\x94\x1b\xf7O@'
p38
tp39
Rp40
ag4
(g8
S'\xda\xc9h\xdf\xd5\xfcO@'
p41
tp42
Rp43
ag4
(g8
S'H\x85\xf6 C\x08P@'
p44
tp45
Rp46
ag4
(g8
S'P\xdb\xc2D\x1d\x06P@'
p47
tp48
Rp49
ag4
(g8
S'\x8d\xa3\xd3\xe6\x8c\x18P@'
p50
tp51
Rp52
ag4
(g8
S'\xa4\x04\x9az\x156P@'
p53
tp54
Rp55
ag4
(g8
S'\xa1\x92\x00\xc4\xcc6P@'
p56
tp57
Rp58
ag4
(g8
S'\x1e\xc4\xc0\xdf\xb17P@'
p59
tp60
Rp61
ag4
(g8
S'|\x9dOl.AP@'
p62
tp63
Rp64
ag4
(g8
S'\xfe\xb2B\xf5\xa4@P@'
p65
tp66
Rp67
ag4
(g8
S'tG\x83HTCP@'
p68
tp69
Rp70
ag4
(g8
S'tG\x83HTCP@'
p71
tp72
Rp73
ag4
(g8
S'\xf7\x15\xc3,oBP@'
p74
tp75
Rp76
ag4
(g8
S'v\xb9\x1c\xff\x9cBP@'
p77
tp78
Rp79
ag4
(g8
S'\xf7\x15\xc3,oBP@'
p80
tp81
Rp82
ag4
(g8
S'\xeb\xdb\xc3\x9b\x03FP@'
p83
tp84
Rp85
ag4
(g8
S'h\xc6\xd0\x12\x8dFP@'
p86
tp87
Rp88
ag4
(g8
S'\xdc\xe8w\xaf\xf3IP@'
p89
tp90
Rp91
ag4
(g8
S'\xd8\xbd\x91\x9d\x06KP@'
p92
tp93
Rp94
ag4
(g8
S'\xde\xa1\xc4\n\x98IP@'
p95
tp96
Rp97
ag4
(g8
S'\xca\xcaE\xb1\xf6NP@'
p98
tp99
Rp100
ag4
(g8
S'\xbc\xd7\xf9\xc4\xe6RP@'
p101
tp102
Rp103
ag4
(g8
S'1\xb3\xed\xbc\xf1UP@'
p104
tp105
Rp106
ag4
(g8
S'\xaa\xb9\xc7\xc6\xe9WP@'
p107
tp108
Rp109
ag4
(g8
S'*\x16n\xf4\xbbWP@'
p110
tp111
Rp112
ag4
(g8
S'\xb3\xc8\xe0EhUP@'
p113
tp114
Rp115
ag4
(g8
S'\x12[\xbc-\x89^P@'
p116
tp117
Rp118
ag4
(g8
S'\x88\xef\xfc\x808aP@'
p119
tp120
Rp121
ag4
(g8
S'|nJKqdP@'
p122
tp123
Rp124
ag4
(g8
S'\xe6\xc8\x8b\r\xb5jP@'
p125
tp126
Rp127
ag4
(g8
S'v\xd1\xca\x82;fP@'
p128
tp129
Rp130
ag4
(g8
S'\xf5\xbb\xd7\xf9\xc4fP@'
p131
tp132
Rp133
ag4
(g8
S'\xe8:%\xc4\xfdiP@'
p134
tp135
Rp136
ag4
(g8
S'h\xde~\x96+jP@'
p137
tp138
Rp139
ag4
(g8
S'kP\x18MtiP@'
p140
tp141
Rp142
ag4
(g8
S'J?\x9abgrP@'
p143
tp144
Rp145
ag4
(g8
S'M\xb13\x19\xb0qP@'
p146
tp147
Rp148
ag4
(g8
S'E[g\xf5\xd5sP@'
p149
tp150
Rp151
ag4
(g8
S'F\x14\xb4PzsP@'
p152
tp153
Rp154
ag4
(g8
S'\xc3Etl_tP@'
p155
tp156
Rp157
ag4
(g8
S':\xda\xb4\xbf\x0ewP@'
p158
tp159
Rp160
ag4
(g8
S'\xb3\x99\xdb$\xabxP@'
p161
tp162
Rp163
ag4
(g8
S'5\xf6\x81R}xP@'
p164
tp165
Rp166
ag4
(g8
S'\xaf\xb5\xa8\xb7\x19zP@'
p167
tp168
Rp169
ag4
(g8
S'(\xbc\x82\xc1\x11|P@'
p170
tp171
Rp172
ag4
(g8
S'\x9a%\xdd\x02\xd4\x7fP@'
p173
tp174
Rp175
ag4
(g8
S'\x9eP\xc3\x14\xc1~P@'
p176
tp177
Rp178
ag4
(g8
S'\x19\xc96\xd5\x01\x80P@'
p179
tp180
Rp181
ag4
(g8
S'\x8e\xeb\xddqh\x83P@'
p182
tp183
Rp184
ag4
(g8
S'\xffT8\xb3*\x87P@'
p185
tp186
Rp187
ag4
(g8
S'\x00U8\xb3*\x87P@'
p188
tp189
Rp190
ag4
(g8
S'}?E*\xb4\x87P@'
p191
tp192
Rp193
ag4
(g8
S'\x82j+<\xa1\x86P@'
p194
tp195
Rp196
ag4
(g8
S'\x84\xdc\xc4\xf2\xe9\x85P@'
p197
tp198
Rp199
ag4
(g8
S'\xfc)R\xa1=\x88P@'
p200
tp201
Rp202
ag4
(g8
S'\x87N^\xa92\x85P@'
p203
tp204
Rp205
ag4
(g8
S'\x049k \xbc\x85P@'
p206
tp207
Rp208
ag4
(g8
S'\xf5\x8c\xd2\xd8\x07\x8aP@'
p209
tp210
Rp211
ag4
(g8
S'\x80\xb1\xde\xe0\xfc\x86P@'
p212
tp213
Rp214
ag4
(g8
S'\x81j+<\xa1\x86P@'
p215
tp216
Rp217
ag4
(g8
S'w\xa2\xc5a~\x89P@'
p218
tp219
Rp220
ag4
(g8
S's\xbe\x92\xf4\xec\x8aP@'
p221
tp222
Rp223
ag4
(g8
S'v\xe9x\x06\xda\x89P@'
p224
tp225
Rp226
ag4
(g8
S'u0,\xab5\x8aP@'
p227
tp228
Rp229
ag4
(g8
S'{\xcd\xabsk\x88P@'
p230
tp231
Rp232
ag4
(g8
S'bY\xadQ\x94\x8fP@'
p233
tp234
Rp235
ag4
(g8
S'\xe3n\xa0\xda\n\x8fP@'
p236
tp237
Rp238
ag4
(g8
S"\xe5'\xed5\xaf\x8eP@"
p239
tp240
Rp241
ag4
(g8
S'\xea\x0b \xa3@\x8dP@'
p242
tp243
Rp244
ag4
(g8
S'\xe7\x99\x86\xec\xf7\x8dP@'
p245
tp246
Rp247
ag4
(g8
S'\xea\x0b \xa3@\x8dP@'
p248
tp249
Rp250
ag4
(g8
S'\xed}\xb9Y\x89\x8cP@'
p251
tp252
Rp253
ag4
(g8
S'\xe1\xfc\x06$\xc2\x8fP@'
p254
tp255
Rp256
ag4
(g8
S'd\xcbF\x08\xdd\x8eP@'
p257
tp258
Rp259
ag4
(g8
S'V\xd8\xfa\x1b\xcd\x92P@'
p260
tp261
Rp262
ag4
(g8
S'\xd2Pn\xdc\r\x94P@'
p263
tp264
Rp265
ag4
(g8
S'\xcf\xde\xd4%\xc5\x94P@'
p266
tp267
Rp268
ag4
(g8
S'JWH\xe6\x05\x96P@'
p269
tp270
Rp271
ag4
(g8
S'\xbb\x07V\xcc#\x9aP@'
p272
tp273
Rp274
ag4
(g8
S'5\x0e0\xd6\x1b\x9cP@'
p275
tp276
Rp277
ag4
(g8
S'\xb3\xf8<M\xa5\x9cP@'
p278
tp279
Rp280
ag4
(g8
S'\xb8\xdco\xba6\x9bP@'
p281
tp282
Rp283
ag4
(g8
S'0*\xfdh\x8a\x9dP@'
p284
tp285
Rp286
ag4
(g8
S'%b\x97\x8eg\xa0P@'
p287
tp288
Rp289
ag4
(g8
S',\xff\x16W\x9d\x9eP@'
p290
tp291
Rp292
ag4
(g8
S'\xb8\xdco\xba6\x9bP@'
p293
tp294
Rp295
ag4
(g8
S'\xb9\x95\xbc\x15\xdb\x9aP@'
p296
tp297
Rp298
ag4
(g8
S'\xb5j\xd6\x03\xee\x9bP@'
p299
tp300
Rp301
ag4
(g8
S'\xa80\xd7r\x82\x9fP@'
p302
tp303
Rp304
ag4
(g8
S'3U\xe3zw\x9cP@'
p305
tp306
Rp307
ag4
(g8
S'\xac[\xbd\x84o\x9eP@'
p308
tp309
Rp310
ag4
(g8
S'*F\xca\xfb\xf8\x9eP@'
p311
tp312
Rp313
ag4
(g8
S'2\x9c\x96\x1f\xd3\x9cP@'
p314
tp315
Rp316
ag4
(g8
S"\xbd\xc0\xa2'\xc8\x99P@"
p317
tp318
Rp319
ag4
(g8
S'#\xa9J3\xc3\xa0P@'
p320
tp321
Rp322
ag4
(g8
S'\xaa\xe9#\xce&\x9fP@'
p323
tp324
Rp325
ag4
(g8
S'\xa80\xd7r\x82\x9fP@'
p326
tp327
Rp328
ag4
(g8
S'\xa80\xd7r\x82\x9fP@'
p329
tp330
Rp331
ag4
(g8
S'\xaa\xe9#\xce&\x9fP@'
p332
tp333
Rp334
ag4
(g8
S'/*\xfdh\x8a\x9dP@'
p335
tp336
Rp337
ag4
(g8
S'1\xe3I\xc4.\x9dP@'
p338
tp339
Rp340
ag4
(g8
S'/*\xfdh\x8a\x9dP@'
p341
tp342
Rp343
ag4
(g8
S'&\x1b\xe4\xe9\x0b\xa0P@'
p344
tp345
Rp346
ag4
(g8
S'\x98\x84>+\xce\xa3P@'
p347
tp348
Rp349
ag4
(g8
S'\xa3L\xa4\x05\xf1\xa0P@'
p350
tp351
Rp352
ag4
(g8
S'\x9a=\x8b\x86r\xa3P@'
p353
tp354
Rp355
ag4
(g8
S'\x98\xcb\xf1\xcf)\xa4P@'
p356
tp357
Rp358
ag4
(g8
S'#\xa9J3\xc3\xa0P@'
p359
tp360
Rp361
ag4
(g8
S'\x1d\x0c\xcbj\x8d\xa2P@'
p362
tp363
Rp364
ag4
(g8
S'\n5L\x11\xec\xa7P@'
p365
tp366
Rp367
ag4
(g8
S'\x03\x98\xccH\xb6\xa9P@'
p368
tp369
Rp370
ag4
(g8
S'\x01&3\x92m\xaaP@'
p371
tp372
Rp373
ag4
(g8
S'\x81\x82\xd9\xbf?\xaaP@'
p374
tp375
Rp376
ag4
(g8
S'\r\xa7\xe5\xc74\xa7P@'
p377
tp378
Rp379
ag4
(g8
S'\x06\nf\xff\xfe\xa8P@'
p380
tp381
Rp382
ag4
(g8
S'\x81\x82\xd9\xbf?\xaaP@'
p383
tp384
Rp385
ag4
(g8
S'}\x9e\xa6R\xae\xabP@'
p386
tp387
Rp388
ag4
(g8
S'\x05Q\x19\xa4Z\xa9P@'
p389
tp390
Rp391
ag4
(g8
S'\x02\xdf\x7f\xed\x11\xaaP@'
p392
tp393
Rp394
ag4
(g8
S'\xedN\xb48\xcc\xafP@'
p395
tp396
Rp397
ag4
(g8
S'\xf0\xc0M\xef\x14\xafP@'
p398
tp399
Rp400
ag4
(g8
S'\xf1y\x9aJ\xb9\xaeP@'
p401
tp402
Rp403
ag4
(g8
S'\xeeN\xb48\xcc\xafP@'
p404
tp405
Rp406
ag4
(g8
S'xs\xc0@\xc1\xacP@'
p407
tp408
Rp409
ag4
(g8
S'w\xbas\xe5\x1c\xadP@'
p410
tp411
Rp412
ag4
(g8
S'\xfd\xfaL\x80\x80\xabP@'
p413
tp414
Rp415
ag4
(g8
S'\xfa\x88\xb3\xc97\xacP@'
p416
tp417
Rp418
ag4
(g8
S'\x00m\xe66\xc9\xaaP@'
p419
tp420
Rp421
ag4
(g8
S'\x88\x1fY\x88u\xa8P@'
p422
tp423
Rp424
ag4
(g8
S'\x02\xdf\x7f\xed\x11\xaaP@'
p425
tp426
Rp427
ag4
(g8
S'\x89\xd8\xa5\xe3\x19\xa8P@'
p428
tp429
Rp430
ag4
(g8
S'\x06\nf\xff\xfe\xa8P@'
p431
tp432
Rp433
ag4
(g8
S'\x0f\x19\x7f~}\xa6P@'
p434
tp435
Rp436
ag4
(g8
S'\x0c\xee\x98l\x90\xa7P@'
p437
tp438
Rp439
ag4
(g8
S'\x89\xd8\xa5\xe3\x19\xa8P@'
p440
tp441
Rp442
ag4
(g8
S'\x05Q\x19\xa4Z\xa9P@'
p443
tp444
Rp445
ag4
(g8
S'\x0e`2#\xd9\xa6P@'
p446
tp447
Rp448
ag4
(g8
S'\x10\x19\x7f~}\xa6P@'
p449
tp450
Rp451
ag4
(g8
S'\r\xa7\xe5\xc74\xa7P@'
p452
tp453
Rp454
ag4
(g8
S'\x88\x1fY\x88u\xa8P@'
p455
tp456
Rp457
ag4
(g8
S'\x8a\xd8\xa5\xe3\x19\xa8P@'
p458
tp459
Rp460
ag4
(g8
S'\x89\xd8\xa5\xe3\x19\xa8P@'
p461
tp462
Rp463
ag4
(g8
S'\x8d\x03\x8c\xf5\x06\xa7P@'
p464
tp465
Rp466
ag4
(g8
S'\x08\xc3\xb2Z\xa3\xa8P@'
p467
tp468
Rp469
ag4
(g8
S'\x0c\xee\x98l\x90\xa7P@'
p470
tp471
Rp472
ag4
(g8
S'\x0b\xee\x98l\x90\xa7P@'
p473
tp474
Rp475
ag4
(g8
S'\x82;&\x1b\xe4\xa9P@'
p476
tp477
Rp478
ag4
(g8
S'\xfbA\x00%\xdc\xabP@'
p479
tp480
Rp481
ag4
(g8
S'\xffl\xe66\xc9\xaaP@'
p482
tp483
Rp484
ag4
(g8
S'\x00m\xe66\xc9\xaaP@'
p485
tp486
Rp487
ag4
(g8
S'v\xbas\xe5\x1c\xadP@'
p488
tp489
Rp490
ag4
(g8
S'\x02\xdf\x7f\xed\x11\xaaP@'
p491
tp492
Rp493
ag4
(g8
S'\x10\xd2\xcb\xd9!\xa6P@'
p494
tp495
Rp496
ag4
(g8
S'z\xe5Y\xf7\t\xacP@'
p497
tp498
Rp499
ag4
(g8
S'\xf8\x16\x1a\x13\xef\xacP@'
p500
tp501
Rp502
ag4
(g8
S'\xf7\x16\x1a\x13\xef\xacP@'
p503
tp504
Rp505
ag4
(g8
S'\xf7]\xcd\xb7J\xadP@'
p506
tp507
Rp508
ag4
(g8
S'\xfa\x88\xb3\xc97\xacP@'
p509
tp510
Rp511
ag4
(g8
S'w\xbas\xe5\x1c\xadP@'
p512
tp513
Rp514
ag4
(g8
S'\xf32\xe7\xa5]\xaeP@'
p515
tp516
Rp517
ag4
(g8
S'pd\xa7\xc1B\xafP@'
p518
tp519
Rp520
ag4
(g8
S'\xf4\xeb3\x01\x02\xaeP@'
p521
tp522
Rp523
ag4
(g8
S"\xed\x95g\xdd'\xb0P@"
p524
tp525
Rp526
ag4
(g8
S'\xeeN\xb48\xcc\xafP@'
p527
tp528
Rp529
ag4
(g8
S'\xe6\xf8\xe7\x14\xf2\xb1P@'
p530
tp531
Rp532
ag4
(g8
S'd\xe3\xf4\x8b{\xb2P@'
p533
tp534
Rp535
ag4
(g8
S'\\\x8d(h\xa1\xb4P@'
p536
tp537
Rp538
ag4
(g8
S"j\xc7'\xf9\x0c\xb1P@"
p539
tp540
Rp541
ag4
(g8
S'\xeb\xdc\x1a\x82\x83\xb0P@'
p542
tp543
Rp544
ag4
(g8
S"i\xc7'\xf9\x0c\xb1P@"
p545
tp546
Rp547
ag4
(g8
S'e\x9cA\xe7\x1f\xb2P@'
p548
tp549
Rp550
ag4
(g8
S'\xdc\xe9\xce\x95s\xb4P@'
p551
tp552
Rp553
ag4
(g8
S'\xde\xa2\x1b\xf1\x17\xb4P@'
p554
tp555
Rp556
ag4
(g8
S'\xd8\x05\x9c(\xe2\xb5P@'
p557
tp558
Rp559
ag4
(g8
S'S~\x0f\xe9"\xb7P@'
p560
tp561
Rp562
ag4
(g8
S'W\xa9\xf5\xfa\x0f\xb6P@'
p563
tp564
Rp565
ag4
(g8
S'\xd5\x93\x02r\x99\xb6P@'
p566
tp567
Rp568
ag4
(g8
S'Y\x1b\x8f\xb1X\xb5P@'
p569
tp570
Rp571
ag4
(g8
S'\xdaw5\xdf*\xb5P@'
p572
tp573
Rp574
ag4
(g8
S'\xde\xa2\x1b\xf1\x17\xb4P@'
p575
tp576
Rp577
ag4
(g8
S'\xdc0\x82:\xcf\xb4P@'
p578
tp579
Rp580
ag4
(g8
S'W\xf0\xa8\x9fk\xb6P@'
p581
tp582
Rp583
ag4
(g8
S'W\xa9\xf5\xfa\x0f\xb6P@'
p584
tp585
Rp586
ag4
(g8
S'PS)\xd75\xb8P@'
p587
tp588
Rp589
ag4
(g8
S'\xcf\xf6\x82\xa9c\xb8P@'
p590
tp591
Rp592
ag4
(g8
S'\xcd=6N\xbf\xb8P@'
p593
tp594
Rp595
ag4
(g8
S'M\xe1\x8f \xed\xb8P@'
p596
tp597
Rp598
ag4
(g8
S'L(C\xc5H\xb9P@'
p599
tp600
Rp601
ag4
(g8
S'\xd2!i\xbbP\xb7P@'
p602
tp603
Rp604
ag4
(g8
S'O\x9a\xdc{\x91\xb8P@'
p605
tp606
Rp607
ag4
(g8
S'\xd5\x93\x02r\x99\xb6P@'
p608
tp609
Rp610
ag4
(g8
S'\xd5\x93\x02r\x99\xb6P@'
p611
tp612
Rp613
ag4
(g8
S'[\xd4\xdb\x0c\xfd\xb4P@'
p614
tp615
Rp616
ag4
(g8
S'R\xc5\xc2\x8d~\xb7P@'
p617
tp618
Rp619
ag4
(g8
S'N\x9a\xdc{\x91\xb8P@'
p620
tp621
Rp622
ag4
(g8
S'M\xe1\x8f \xed\xb8P@'
p623
tp624
Rp625
ag4
(g8
S'\xd2!i\xbbP\xb7P@'
p626
tp627
Rp628
ag4
(g8
S'\xd0\xaf\xcf\x04\x08\xb8P@'
p629
tp630
Rp631
ag4
(g8
S'\xcd=6N\xbf\xb8P@'
p632
tp633
Rp634
ag4
(g8
S'\xd8\x05\x9c(\xe2\xb5P@'
p635
tp636
Rp637
ag4
(g8
S'[\xd4\xdb\x0c\xfd\xb4P@'
p638
tp639
Rp640
ag4
(g8
S'\xdb0\x82:\xcf\xb4P@'
p641
tp642
Rp643
ag4
(g8
S'\\\x8d(h\xa1\xb4P@'
p644
tp645
Rp646
ag4
(g8
S'WbBV\xb4\xb5P@'
p647
tp648
Rp649
ag4
(g8
S'\xe4?\x9b\xb9M\xb2P@'
p650
tp651
Rp652
ag4
(g8
S'[\x8d(h\xa1\xb4P@'
p653
tp654
Rp655
ag4
(g8
S'[\xd4\xdb\x0c\xfd\xb4P@'
p656
tp657
Rp658
ag4
(g8
S'\xdaw5\xdf*\xb5P@'
p659
tp660
Rp661
ag4
(g8
S'\xd4\xda\xb5\x16\xf5\xb6P@'
p662
tp663
Rp664
ag4
(g8
S'\xd0\xaf\xcf\x04\x08\xb8P@'
p665
tp666
Rp667
ag4
(g8
S'\xcc\x84\xe9\xf2\x1a\xb9P@'
p668
tp669
Rp670
ag4
(g8
S'L(C\xc5H\xb9P@'
p671
tp672
Rp673
ag4
(g8
S'\xcb\xcb\x9c\x97v\xb9P@'
p674
tp675
Rp676
ag4
(g8
S'H\xfd\\\xb3[\xbaP@'
p677
tp678
Rp679
ag4
(g8
S'B\x19*F\xca\xbbP@'
p680
tp681
Rp682
ag4
(g8
S'\xcd=6N\xbf\xb8P@'
p683
tp684
Rp685
ag4
(g8
S'\xc8Y\x03\xe1-\xbaP@'
p686
tp687
Rp688
ag4
(g8
S'\xc4.\x1d\xcf@\xbbP@'
p689
tp690
Rp691
ag4
(g8
S'E\x8b\xc3\xfc\x12\xbbP@'
p692
tp693
Rp694
ag4
(g8
S'G\xfd\\\xb3[\xbaP@'
p695
tp696
Rp697
ag4
(g8
S'OS)\xd75\xb8P@'
p698
tp699
Rp700
ag4
(g8
S'\xca\x12P<\xd2\xb9P@'
p701
tp702
Rp703
ag4
(g8
S'Jo\xf6i\xa4\xb9P@'
p704
tp705
Rp706
ag4
(g8
S'\xce\xf6\x82\xa9c\xb8P@'
p707
tp708
Rp709
ag4
(g8
S'R\xc5\xc2\x8d~\xb7P@'
p710
tp711
Rp712
ag4
(g8
S'P\x0cv2\xda\xb7P@'
p713
tp714
Rp715
ag4
(g8
S'\xcf\xf6\x82\xa9c\xb8P@'
p716
tp717
Rp718
ag4
(g8
S'L(C\xc5H\xb9P@'
p719
tp720
Rp721
ag4
(g8
S'\xca\xcb\x9c\x97v\xb9P@'
p722
tp723
Rp724
ag4
(g8
S'\xcd=6N\xbf\xb8P@'
p725
tp726
Rp727
ag4
(g8
S'Q\x0cv2\xda\xb7P@'
p728
tp729
Rp730
ag4
(g8
S'Q\x0cv2\xda\xb7P@'
p731
tp732
Rp733
ag4
(g8
S'\xd0\xaf\xcf\x04\x08\xb8P@'
p734
tp735
Rp736
ag4
(g8
S'\xd0\xaf\xcf\x04\x08\xb8P@'
p737
tp738
Rp739
ag4
(g8
S'\xcc\x84\xe9\xf2\x1a\xb9P@'
p740
tp741
Rp742
ag4
(g8
S'T7\\D\xc7\xb6P@'
p743
tp744
Rp745
ag4
(g8
S'\xce\xf6\x82\xa9c\xb8P@'
p746
tp747
Rp748
ag4
(g8
S'\xe0[hL\xbc\xb3P@'
p749
tp750
Rp751
ag4
(g8
S'\xe4?\x9b\xb9M\xb2P@'
p752
tp753
Rp754
ag4
(g8
S'_\xff\xc1\x1e\xea\xb3P@'
p755
tp756
Rp757
ag4
(g8
S'\xe7\xb14p\x96\xb1P@'
p758
tp759
Rp760
ag4
(g8
S'\xe6\xf8\xe7\x14\xf2\xb1P@'
p761
tp762
Rp763
ag4
(g8
S'h\x0e\xdb\x9dh\xb1P@'
p764
tp765
Rp766
ag4
(g8
S'\xe9j\x81\xcb:\xb1P@'
p767
tp768
Rp769
ag4
(g8
S'aq[\xd52\xb3P@'
p770
tp771
Rp772
ag4
(g8
S'\xe0\x14\xb5\xa7`\xb3P@'
p773
tp774
Rp775
ag4
(g8
S'`\xb8\x0ez\x8e\xb3P@'
p776
tp777
Rp778
ag4
(g8
S'\\\x8d(h\xa1\xb4P@'
p779
tp780
Rp781
ag4
(g8
S'aq[\xd52\xb3P@'
p782
tp783
Rp784
ag4
(g8
S'Z\x1b\x8f\xb1X\xb5P@'
p785
tp786
Rp787
ag4
(g8
S'\xe0[hL\xbc\xb3P@'
p788
tp789
Rp790
ag4
(g8
S'e\x9cA\xe7\x1f\xb2P@'
p791
tp792
Rp793
ag4
(g8
S'aq[\xd52\xb3P@'
p794
tp795
Rp796
ag4
(g8
S'l9\xc1\xafU\xb0P@'
p797
tp798
Rp799
ag4
(g8
S'n\xabZf\x9e\xafP@'
p800
tp801
Rp802
ag4
(g8
S'\xea#\xce&\xdf\xb0P@'
p803
tp804
Rp805
ag4
(g8
S'\xe3\x86N^\xa9\xb2P@'
p806
tp807
Rp808
ag4
(g8
S'gU\x8eB\xc4\xb1P@'
p809
tp810
Rp811
ag4
(g8
S'b*\xa80\xd7\xb2P@'
p812
tp813
Rp814
ag4
(g8
S'gU\x8eB\xc4\xb1P@'
p815
tp816
Rp817
ag4
(g8
S'\xe3\x86N^\xa9\xb2P@'
p818
tp819
Rp820
ag4
(g8
S'\xe9j\x81\xcb:\xb1P@'
p821
tp822
Rp823
ag4
(g8
S"i\xc7'\xf9\x0c\xb1P@"
p824
tp825
Rp826
ag4
(g8
S'e\x9cA\xe7\x1f\xb2P@'
p827
tp828
Rp829
ag4
(g8
S'gU\x8eB\xc4\xb1P@'
p830
tp831
Rp832
ag4
(g8
S'j\x80tT\xb1\xb0P@'
p833
tp834
Rp835
ag4
(g8
S'\xef\x07\x01\x94p\xafP@'
p836
tp837
Rp838
ag4
(g8
S"\xed\x95g\xdd'\xb0P@"
p839
tp840
Rp841
ag4
(g8
S's\x8f\x8d\xd3/\xaeP@'
p842
tp843
Rp844
ag4
(g8
S'\xedN\xb48\xcc\xafP@'
p845
tp846
Rp847
ag4
(g8
S'k\x80tT\xb1\xb0P@'
p848
tp849
Rp850
ag4
(g8
S"v\x01'\x8ax\xadP@"
p851
tp852
Rp853
ag4
(g8
S'x\xbas\xe5\x1c\xadP@'
p854
tp855
Rp856
ag4
(g8
S'\x00m\xe66\xc9\xaaP@'
p857
tp858
Rp859
ag4
(g8
S'\x02\xdf\x7f\xed\x11\xaaP@'
p860
tp861
Rp862
ag4
(g8
S'\x87f\x0c-\xd1\xa8P@'
p863
tp864
Rp865
ag4
(g8
S'\xfd\xfaL\x80\x80\xabP@'
p866
tp867
Rp868
ag4
(g8
S'\xfcA\x00%\xdc\xabP@'
p869
tp870
Rp871
ag4
(g8
S'o\xabZf\x9e\xafP@'
p872
tp873
Rp874
ag4
(g8
S'\xf5\xa4\x80\\\xa6\xadP@'
p875
tp876
Rp877
ag4
(g8
S'\xf5\xa4\x80\\\xa6\xadP@'
p878
tp879
Rp880
ag4
(g8
S'uH\xda.\xd4\xadP@'
p881
tp882
Rp883
ag4
(g8
S'\xfa\x88\xb3\xc97\xacP@'
p884
tp885
Rp886
ag4
(g8
S'xs\xc0@\xc1\xacP@'
p887
tp888
Rp889
ag4
(g8
S"v\x01'\x8ax\xadP@"
p890
tp891
Rp892
ag4
(g8
S'uH\xda.\xd4\xadP@'
p893
tp894
Rp895
ag4
(g8
S'r\xd6@x\x8b\xaeP@'
p896
tp897
Rp898
ag4
(g8
S"\xec\x95g\xdd'\xb0P@"
p899
tp900
Rp901
ag4
(g8
S'\xea#\xce&\xdf\xb0P@'
p902
tp903
Rp904
ag4
(g8
S'pd\xa7\xc1B\xafP@'
p905
tp906
Rp907
ag4
(g8
S'\xfd\xfaL\x80\x80\xabP@'
p908
tp909
Rp910
ag4
(g8
S'r\xd6@x\x8b\xaeP@'
p911
tp912
Rp913
ag4
(g8
S"v\x01'\x8ax\xadP@"
p914
tp915
Rp916
ag4
(g8
S'tH\xda.\xd4\xadP@'
p917
tp918
Rp919
ag4
(g8
S'o\xabZf\x9e\xafP@'
p920
tp921
Rp922
ag4
(g8
S'\xf2y\x9aJ\xb9\xaeP@'
p923
tp924
Rp925
ag4
(g8
S'm\xf2\r\x0b\xfa\xafP@'
p926
tp927
Rp928
ag4
(g8
S'\xe8j\x81\xcb:\xb1P@'
p929
tp930
Rp931
ag4
(g8
S'pd\xa7\xc1B\xafP@'
p932
tp933
Rp934
ag4
(g8
S'm\xf2\r\x0b\xfa\xafP@'
p935
tp936
Rp937
ag4
(g8
S'\xea#\xce&\xdf\xb0P@'
p938
tp939
Rp940
ag4
(g8
S'k9\xc1\xafU\xb0P@'
p941
tp942
Rp943
ag4
(g8
S'\xf0\xc0M\xef\x14\xafP@'
p944
tp945
Rp946
ag4
(g8
S'r\x1d\xf4\x1c\xe7\xaeP@'
p947
tp948
Rp949
ag4
(g8
S'n\xabZf\x9e\xafP@'
p950
tp951
Rp952
ag4
(g8
S'\xf9\xcffn\x93\xacP@'
p953
tp954
Rp955
ag4
(g8
S'\xf32\xe7\xa5]\xaeP@'
p956
tp957
Rp958
ag4
(g8
S't\x8f\x8d\xd3/\xaeP@'
p959
tp960
Rp961
ag4
(g8
S'\xf0\xc0M\xef\x14\xafP@'
p962
tp963
Rp964
ag4
(g8
S'\xf4\xeb3\x01\x02\xaeP@'
p965
tp966
Rp967
ag4
(g8
S'r\xd6@x\x8b\xaeP@'
p968
tp969
Rp970
ag4
(g8
S'\xf5\xa4\x80\\\xa6\xadP@'
p971
tp972
Rp973
ag4
(g8
S'pd\xa7\xc1B\xafP@'
p974
tp975
Rp976
ag4
(g8
S'\xf32\xe7\xa5]\xaeP@'
p977
tp978
Rp979
ag4
(g8
S'od\xa7\xc1B\xafP@'
p980
tp981
Rp982
ag4
(g8
S'n\xabZf\x9e\xafP@'
p983
tp984
Rp985
ag4
(g8
S'd\xe3\xf4\x8b{\xb2P@'
p986
tp987
Rp988
ag4
(g8
S'\xe7\xb14p\x96\xb1P@'
p989
tp990
Rp991
ag4
(g8
S'\xe2\xcd\x01\x03\x05\xb3P@'
p992
tp993
Rp994
ag4
(g8
S'h\x0e\xdb\x9dh\xb1P@'
p995
tp996
Rp997
ag4
(g8
S'l9\xc1\xafU\xb0P@'
p998
tp999
Rp1000
ag4
(g8
S'\xee\x07\x01\x94p\xafP@'
p1001
tp1002
Rp1003
ag4
(g8
S"\xec\x95g\xdd'\xb0P@"
p1004
tp1005
Rp1006
ag4
(g8
S'\xf7\x16\x1a\x13\xef\xacP@'
p1007
tp1008
Rp1009
ag4
(g8
S'\xf4\xeb3\x01\x02\xaeP@'
p1010
tp1011
Rp1012
ag4
(g8
S't\x8f\x8d\xd3/\xaeP@'
p1013
tp1014
Rp1015
ag4
(g8
S'\xf32\xe7\xa5]\xaeP@'
p1016
tp1017
Rp1018
ag4
(g8
S'\xf7]\xcd\xb7J\xadP@'
p1019
tp1020
Rp1021
ag4
(g8
S'\xf7]\xcd\xb7J\xadP@'
p1022
tp1023
Rp1024
ag4
(g8
S'{\xe5Y\xf7\t\xacP@'
p1025
tp1026
Rp1027
ag4
(g8
S'z,\r\x9ce\xacP@'
p1028
tp1029
Rp1030
ag4
(g8
S'z,\r\x9ce\xacP@'
p1031
tp1032
Rp1033
ag4
(g8
S'\xf8\x16\x1a\x13\xef\xacP@'
p1034
tp1035
Rp1036
ag4
(g8
S'\xf5\xa4\x80\\\xa6\xadP@'
p1037
tp1038
Rp1039
ag4
(g8
S'\xfcA\x00%\xdc\xabP@'
p1040
tp1041
Rp1042
ag4
(g8
S'\xf9\xcffn\x93\xacP@'
p1043
tp1044
Rp1045
ag4
(g8
S'\xf7\x16\x1a\x13\xef\xacP@'
p1046
tp1047
Rp1048
ag4
(g8
S'\xf6]\xcd\xb7J\xadP@'
p1049
tp1050
Rp1051
ag4
(g8
S'\xfbA\x00%\xdc\xabP@'
p1052
tp1053
Rp1054
ag4
(g8
S'tH\xda.\xd4\xadP@'
p1055
tp1056
Rp1057
ag4
(g8
S'od\xa7\xc1B\xafP@'
p1058
tp1059
Rp1060
ag4
(g8
S'\xdf[hL\xbc\xb3P@'
p1061
tp1062
Rp1063
ag4
(g8
S']Fu\xc3E\xb4P@'
p1064
tp1065
Rp1066
ag4
(g8
S']Fu\xc3E\xb4P@'
p1067
tp1068
Rp1069
ag4
(g8
S'Z\xd4\xdb\x0c\xfd\xb4P@'
p1070
tp1071
Rp1072
ag4
(g8
S'Z\x1b\x8f\xb1X\xb5P@'
p1073
tp1074
Rp1075
ag4
(g8
S'S~\x0f\xe9"\xb7P@'
p1076
tp1077
Rp1078
ag4
(g8
S'W\xa9\xf5\xfa\x0f\xb6P@'
p1079
tp1080
Rp1081
ag4
(g8
S'Z\x1b\x8f\xb1X\xb5P@'
p1082
tp1083
Rp1084
ag4
(g8
S'[\x8d(h\xa1\xb4P@'
p1085
tp1086
Rp1087
ag4
(g8
S'\xe2\xcd\x01\x03\x05\xb3P@'
p1088
tp1089
Rp1090
ag4
(g8
S'\xe0\x14\xb5\xa7`\xb3P@'
p1091
tp1092
Rp1093
ag4
(g8
S'YbBV\xb4\xb5P@'
p1094
tp1095
Rp1096
ag4
(g8
S'\xdc\xe9\xce\x95s\xb4P@'
p1097
tp1098
Rp1099
ag4
(g8
S'^\xff\xc1\x1e\xea\xb3P@'
p1100
tp1101
Rp1102
ag4
(g8
S'\xe0\x14\xb5\xa7`\xb3P@'
p1103
tp1104
Rp1105
ag4
(g8
S'W\xa9\xf5\xfa\x0f\xb6P@'
p1106
tp1107
Rp1108
ag4
(g8
S'\xde\xa2\x1b\xf1\x17\xb4P@'
p1109
tp1110
Rp1111
ag4
(g8
S'\xe2\xcd\x01\x03\x05\xb3P@'
p1112
tp1113
Rp1114
ag4
(g8
S'\xe6\xf8\xe7\x14\xf2\xb1P@'
p1115
tp1116
Rp1117
ag4
(g8
S'\xe9j\x81\xcb:\xb1P@'
p1118
tp1119
Rp1120
ag4
(g8
S'\xeb\xdc\x1a\x82\x83\xb0P@'
p1121
tp1122
Rp1123
ag4
(g8
S'h\x0e\xdb\x9dh\xb1P@'
p1124
tp1125
Rp1126
ag4
(g8
S'm\xf2\r\x0b\xfa\xafP@'
p1127
tp1128
Rp1129
ag4
(g8
S"i\xc7'\xf9\x0c\xb1P@"
p1130
tp1131
Rp1132
ag4
(g8
S't\x8f\x8d\xd3/\xaeP@'
p1133
tp1134
Rp1135
ag4
(g8
S'q\x1d\xf4\x1c\xe7\xaeP@'
p1136
tp1137
Rp1138
ag4
(g8
S'xs\xc0@\xc1\xacP@'
p1139
tp1140
Rp1141
ag4
(g8
S'\xffl\xe66\xc9\xaaP@'
p1142
tp1143
Rp1144
ag4
(g8
S'}W\xf3\xadR\xabP@'
p1145
tp1146
Rp1147
ag4
(g8
S'\xf7\x16\x1a\x13\xef\xacP@'
p1148
tp1149
Rp1150
ag4
(g8
S'tH\xda.\xd4\xadP@'
p1151
tp1152
Rp1153
ag4
(g8
S'uH\xda.\xd4\xadP@'
p1154
tp1155
Rp1156
ag4
(g8
S'\xf2y\x9aJ\xb9\xaeP@'
p1157
tp1158
Rp1159
ag4
(g8
S'n\xabZf\x9e\xafP@'
p1160
tp1161
Rp1162
ag4
(g8
S'\xf1y\x9aJ\xb9\xaeP@'
p1163
tp1164
Rp1165
ag4
(g8
S'pd\xa7\xc1B\xafP@'
p1166
tp1167
Rp1168
ag4
(g8
S'\xeb\xdc\x1a\x82\x83\xb0P@'
p1169
tp1170
Rp1171
ag4
(g8
S'k9\xc1\xafU\xb0P@'
p1172
tp1173
Rp1174
ag4
(g8
S'\xf1\xc0M\xef\x14\xafP@'
p1175
tp1176
Rp1177
ag4
(g8
S'\xeb\xdc\x1a\x82\x83\xb0P@'
p1178
tp1179
Rp1180
ag4
(g8
S'l9\xc1\xafU\xb0P@'
p1181
tp1182
Rp1183
ag4
(g8
S'd\xe3\xf4\x8b{\xb2P@'
p1184
tp1185
Rp1186
ag4
(g8
S'j\x80tT\xb1\xb0P@'
p1187
tp1188
Rp1189
ag4
(g8
S'\xea#\xce&\xdf\xb0P@'
p1190
tp1191
Rp1192
ag4
(g8
S'\xeb\xdc\x1a\x82\x83\xb0P@'
p1193
tp1194
Rp1195
ag4
(g8
S'\xef\x07\x01\x94p\xafP@'
p1196
tp1197
Rp1198
ag4
(g8
S'l9\xc1\xafU\xb0P@'
p1199
tp1200
Rp1201
ag4
(g8
S'aq[\xd52\xb3P@'
p1202
tp1203
Rp1204
ag4
(g8
S'\xe7\xb14p\x96\xb1P@'
p1205
tp1206
Rp1207
ag4
(g8
S'k\x80tT\xb1\xb0P@'
p1208
tp1209
Rp1210
ag4
(g8
S'\xe7\xb14p\x96\xb1P@'
p1211
tp1212
Rp1213
ag4
(g8
S'\xea#\xce&\xdf\xb0P@'
p1214
tp1215
Rp1216
ag4
(g8
S'_\xff\xc1\x1e\xea\xb3P@'
p1217
tp1218
Rp1219
ag4
(g8
S'fU\x8eB\xc4\xb1P@'
p1220
tp1221
Rp1222
ag4
(g8
S'h\x0e\xdb\x9dh\xb1P@'
p1223
tp1224
Rp1225
ag4
(g8
S'\xea#\xce&\xdf\xb0P@'
p1226
tp1227
Rp1228
ag4
(g8
S'l9\xc1\xafU\xb0P@'
p1229
tp1230
Rp1231
ag4
(g8
S'\xeb\xdc\x1a\x82\x83\xb0P@'
p1232
tp1233
Rp1234
ag4
(g8
S'\xea#\xce&\xdf\xb0P@'
p1235
tp1236
Rp1237
ag4
(g8
S'r\xd6@x\x8b\xaeP@'
p1238
tp1239
Rp1240
ag4
(g8
S'\xea#\xce&\xdf\xb0P@'
p1241
tp1242
Rp1243
ag4
(g8
S'\xedN\xb48\xcc\xafP@'
p1244
tp1245
Rp1246
ag4
(g8
S'\xf1y\x9aJ\xb9\xaeP@'
p1247
tp1248
Rp1249
ag4
(g8
S'\xf2y\x9aJ\xb9\xaeP@'
p1250
tp1251
Rp1252
ag4
(g8
S"v\x01'\x8ax\xadP@"
p1253
tp1254
Rp1255
ag4
(g8
S'\xf2y\x9aJ\xb9\xaeP@'
p1256
tp1257
Rp1258
ag4
(g8
S'ys\xc0@\xc1\xacP@'
p1259
tp1260
Rp1261
ag4
(g8
S'{\xe5Y\xf7\t\xacP@'
p1262
tp1263
Rp1264
ag4
(g8
S'\xfd\xfaL\x80\x80\xabP@'
p1265
tp1266
Rp1267
ag4
(g8
S'\xf5\xa4\x80\\\xa6\xadP@'
p1268
tp1269
Rp1270
ag4
(g8
S'\xf6]\xcd\xb7J\xadP@'
p1271
tp1272
Rp1273
ag4
(g8
S'\xf4\xeb3\x01\x02\xaeP@'
p1274
tp1275
Rp1276
ag4
(g8
S'r\xd6@x\x8b\xaeP@'
p1277
tp1278
Rp1279
ag4
(g8
S's\x8f\x8d\xd3/\xaeP@'
p1280
tp1281
Rp1282
ag4
(g8
S"v\x01'\x8ax\xadP@"
p1283
tp1284
Rp1285
ag4
(g8
S'r\xd6@x\x8b\xaeP@'
p1286
tp1287
Rp1288
ag4
(g8
S'gU\x8eB\xc4\xb1P@'
p1289
tp1290
Rp1291
ag4
(g8
S'm\xf2\r\x0b\xfa\xafP@'
p1292
tp1293
Rp1294
ag4
(g8
S'd\xe3\xf4\x8b{\xb2P@'
p1295
tp1296
Rp1297
ag4
(g8
S'e\x9cA\xe7\x1f\xb2P@'
p1298
tp1299
Rp1300
ag4
(g8
S'\xdf[hL\xbc\xb3P@'
p1301
tp1302
Rp1303
ag4
(g8
S'\xde\xa2\x1b\xf1\x17\xb4P@'
p1304
tp1305
Rp1306
ag4
(g8
S'\xdf[hL\xbc\xb3P@'
p1307
tp1308
Rp1309
ag4
(g8
S'\xdc0\x82:\xcf\xb4P@'
p1310
tp1311
Rp1312
ag4
(g8
S'aq[\xd52\xb3P@'
p1313
tp1314
Rp1315
ag4
(g8
S'\xe7\xb14p\x96\xb1P@'
p1316
tp1317
Rp1318
ag4
(g8
S'k\x80tT\xb1\xb0P@'
p1319
tp1320
Rp1321
ag4
(g8
S'\xea#\xce&\xdf\xb0P@'
p1322
tp1323
Rp1324
ag4
(g8
S'j\x80tT\xb1\xb0P@'
p1325
tp1326
Rp1327
ag4
(g8
S'tH\xda.\xd4\xadP@'
p1328
tp1329
Rp1330
ag4
(g8
S'\xf4\xeb3\x01\x02\xaeP@'
p1331
tp1332
Rp1333
ag4
(g8
S'\xf9\xcffn\x93\xacP@'
p1334
tp1335
Rp1336
ag4
(g8
S'\xf7]\xcd\xb7J\xadP@'
p1337
tp1338
Rp1339
ag4
(g8
S'\xfcA\x00%\xdc\xabP@'
p1340
tp1341
Rp1342
ag4
(g8
S"u\x01'\x8ax\xadP@"
p1343
tp1344
Rp1345
ag4
(g8
S"v\x01'\x8ax\xadP@"
p1346
tp1347
Rp1348
ag4
(g8
S'\xf32\xe7\xa5]\xaeP@'
p1349
tp1350
Rp1351
ag4
(g8
S'q\x1d\xf4\x1c\xe7\xaeP@'
p1352
tp1353
Rp1354
ag4
(g8
S'x\xbas\xe5\x1c\xadP@'
p1355
tp1356
Rp1357
ag4
(g8
S'\xf6]\xcd\xb7J\xadP@'
p1358
tp1359
Rp1360
ag4
(g8
S'xs\xc0@\xc1\xacP@'
p1361
tp1362
Rp1363
ag4
(g8
S'\xf8\x16\x1a\x13\xef\xacP@'
p1364
tp1365
Rp1366
ag4
(g8
S'\xf8\x16\x1a\x13\xef\xacP@'
p1367
tp1368
Rp1369
ag4
(g8
S'~\x10@\t\xf7\xaaP@'
p1370
tp1371
Rp1372
ag4
(g8
S'\xffl\xe66\xc9\xaaP@'
p1373
tp1374
Rp1375
ag4
(g8
S'\xfbA\x00%\xdc\xabP@'
p1376
tp1377
Rp1378
ag4
(g8
S'\xfbA\x00%\xdc\xabP@'
p1379
tp1380
Rp1381
ag4
(g8
S'w\xbas\xe5\x1c\xadP@'
p1382
tp1383
Rp1384
ag4
(g8
S'q\x1d\xf4\x1c\xe7\xaeP@'
p1385
tp1386
Rp1387
ag4
(g8
S'\xf32\xe7\xa5]\xaeP@'
p1388
tp1389
Rp1390
ag4
(g8
S's\x8f\x8d\xd3/\xaeP@'
p1391
tp1392
Rp1393
ag4
(g8
S't\x8f\x8d\xd3/\xaeP@'
p1394
tp1395
Rp1396
ag4
(g8
S'\xf0\xc0M\xef\x14\xafP@'
p1397
tp1398
Rp1399
ag4
(g8
S'\xf1y\x9aJ\xb9\xaeP@'
p1400
tp1401
Rp1402
ag4
(g8
S'\xf2y\x9aJ\xb9\xaeP@'
p1403
tp1404
Rp1405
ag4
(g8
S's\x8f\x8d\xd3/\xaeP@'
p1406
tp1407
Rp1408
ag4
(g8
S'pd\xa7\xc1B\xafP@'
p1409
tp1410
Rp1411
ag4
(g8
S'\xf32\xe7\xa5]\xaeP@'
p1412
tp1413
Rp1414
ag4
(g8
S'uH\xda.\xd4\xadP@'
p1415
tp1416
Rp1417
ag4
(g8
S't\x8f\x8d\xd3/\xaeP@'
p1418
tp1419
Rp1420
ag4
(g8
S'w\xbas\xe5\x1c\xadP@'
p1421
tp1422
Rp1423
ag4
(g8
S'y,\r\x9ce\xacP@'
p1424
tp1425
Rp1426
ag4
(g8
S"v\x01'\x8ax\xadP@"
p1427
tp1428
Rp1429
ag4
(g8
S'xs\xc0@\xc1\xacP@'
p1430
tp1431
Rp1432
ag4
(g8
S'\xf4\xeb3\x01\x02\xaeP@'
p1433
tp1434
Rp1435
ag4
(g8
S'\xf1y\x9aJ\xb9\xaeP@'
p1436
tp1437
Rp1438
ag4
(g8
S'uH\xda.\xd4\xadP@'
p1439
tp1440
Rp1441
ag4
(g8
S'\xf3\xeb3\x01\x02\xaeP@'
p1442
tp1443
Rp1444
ag4
(g8
S'\xf5\xa4\x80\\\xa6\xadP@'
p1445
tp1446
Rp1447
ag4
(g8
S"v\x01'\x8ax\xadP@"
p1448
tp1449
Rp1450
ag4
(g8
S'\xf6\xa4\x80\\\xa6\xadP@'
p1451
tp1452
Rp1453
ag4
(g8
S'\xf1y\x9aJ\xb9\xaeP@'
p1454
tp1455
Rp1456
ag4
(g8
S'\xf4\xeb3\x01\x02\xaeP@'
p1457
tp1458
Rp1459
ag4
(g8
S'p\x1d\xf4\x1c\xe7\xaeP@'
p1460
tp1461
Rp1462
ag4
(g8
S'o\xabZf\x9e\xafP@'
p1463
tp1464
Rp1465
ag4
(g8
S'od\xa7\xc1B\xafP@'
p1466
tp1467
Rp1468
ag4
(g8
S'\xee\x07\x01\x94p\xafP@'
p1469
tp1470
Rp1471
ag4
(g8
S'm\xf2\r\x0b\xfa\xafP@'
p1472
tp1473
Rp1474
ag4
(g8
S"\xec\x95g\xdd'\xb0P@"
p1475
tp1476
Rp1477
ag4
(g8
S'p\x1d\xf4\x1c\xe7\xaeP@'
p1478
tp1479
Rp1480
ag4
(g8
S'p\x1d\xf4\x1c\xe7\xaeP@'
p1481
tp1482
Rp1483
ag4
(g8
S'\xf1y\x9aJ\xb9\xaeP@'
p1484
tp1485
Rp1486
ag4
(g8
S'\xf32\xe7\xa5]\xaeP@'
p1487
tp1488
Rp1489
ag4
(g8
S'r\xd6@x\x8b\xaeP@'
p1490
tp1491
Rp1492
ag4
(g8
S'\xf32\xe7\xa5]\xaeP@'
p1493
tp1494
Rp1495
ag4
(g8
S't\x8f\x8d\xd3/\xaeP@'
p1496
tp1497
Rp1498
ag4
(g8
S't\x8f\x8d\xd3/\xaeP@'
p1499
tp1500
Rp1501
atp1502
.